(lp1
ccollections
OrderedDict
p2
((lp3
(lp4
Vrevid
p5
aI954195614
aa(lp6
Vparentid
p7
aI913447671
aa(lp8
Vuser
p9
aVSmokeyJoe
p10
aa(lp11
Vtimestamp
p12
actime
struct_time
p13
((I2020
I5
I1
I4
I56
I27
I4
I122
I-1
t(dtRp14
aa(lp15
Vcomment
p16
aV/* top */ Per [[WP:LINKBOXES]].  Linkboxes are not for every shortcut.  Cut to the two with the most pageviews.  [[WP:NFILM]] & [[WP:NF]]
p17
aatRp18
ag2
((lp19
(lp20
Vrevid
p21
aI913447671
aa(lp22
Vparentid
p23
aI913446810
aa(lp24
Vminor
p25
aV
aa(lp26
Vuser
p27
aVFrood
p28
aa(lp29
Vtimestamp
p30
ag13
((I2019
I9
I1
I3
I40
I22
I6
I244
I-1
t(dtRp31
aa(lp32
Vcomment
p33
aVReverted edits by [[Special:Contribs/103.87.142.214|103.87.142.214]] ([[User talk:103.87.142.214|talk]]) to last version by QueerEcofeminist
p34
aatRp35
ag2
((lp36
(lp37
Vrevid
p38
aI913446810
aa(lp39
Vparentid
p40
aI892987120
aa(lp41
Vuser
p42
aV103.87.142.214
p43
aa(lp44
Vanon
p45
aV
aa(lp46
Vtimestamp
p47
ag13
((I2019
I9
I1
I3
I31
I0
I6
I244
I-1
t(dtRp48
aa(lp49
Vcomment
p50
aV
aatRp51
ag2
((lp52
(lp53
Vrevid
p54
aI892987120
aa(lp55
Vparentid
p56
aI861266335
aa(lp57
Vuser
p58
aVQueerEcofeminist
p59
aa(lp60
Vtimestamp
p61
ag13
((I2019
I4
I18
I5
I55
I47
I3
I108
I-1
t(dtRp62
aa(lp63
Vcomment
p64
aVImporting Wikidata [[Wikipedia:Short description|short description]]: "Wikipedia policy for notability of films" ([[User:Galobtter/Shortdesc helper|Shortdesc helper]])
p65
aatRp66
ag2
((lp67
(lp68
Vrevid
p69
aI861266335
aa(lp70
Vparentid
p71
aI854860160
aa(lp72
Vminor
p73
aV
aa(lp74
Vuser
p75
aVNumbermaniac
p76
aa(lp77
Vtimestamp
p78
ag13
((I2018
I9
I26
I6
I41
I38
I2
I269
I-1
t(dtRp79
aa(lp80
Vcomment
p81
aV/* Reliable sources */
p82
aatRp83
ag2
((lp84
(lp85
Vrevid
p86
aI854860160
aa(lp87
Vparentid
p88
aI854858275
aa(lp89
Vminor
p90
aV
aa(lp91
Vuser
p92
aVShellwood
p93
aa(lp94
Vtimestamp
p95
ag13
((I2018
I8
I14
I8
I27
I49
I1
I226
I-1
t(dtRp96
aa(lp97
Vcomment
p98
aVReverted edits by [[Special:Contributions/2405:204:5703:8BEE:0:0:DB7:50A5|2405:204:5703:8BEE:0:0:DB7:50A5]] ([[User talk:2405:204:5703:8BEE:0:0:DB7:50A5|talk]]) ([[WP:HG|HG]]) (3.4.4)
p99
aatRp100
ag2
((lp101
(lp102
Vrevid
p103
aI854858275
aa(lp104
Vparentid
p105
aI853619394
aa(lp106
Vuser
p107
aV2405:204:5703:8BEE:0:0:DB7:50A5
p108
aa(lp109
Vanon
p110
aV
aa(lp111
Vtimestamp
p112
ag13
((I2018
I8
I14
I8
I8
I9
I1
I226
I-1
t(dtRp113
aa(lp114
Vcomment
p115
aV
aatRp116
ag2
((lp117
(lp118
Vrevid
p119
aI853619394
aa(lp120
Vparentid
p121
aI852625068
aa(lp122
Vuser
p123
aVChompy Ace
p124
aa(lp125
Vtimestamp
p126
ag13
((I2018
I8
I6
I0
I19
I1
I0
I218
I-1
t(dtRp127
aa(lp128
Vcomment
p129
aV/* Future films, incomplete films, and undistributed films */Move to unlock
p130
aatRp131
ag2
((lp132
(lp133
Vrevid
p134
aI852625068
aa(lp135
Vparentid
p136
aI835493352
aa(lp137
Vuser
p138
aVChompy Ace
p139
aa(lp140
Vtimestamp
p141
ag13
((I2018
I7
I30
I8
I7
I35
I0
I211
I-1
t(dtRp142
aa(lp143
Vcomment
p144
aV/* General principles */
p145
aatRp146
ag2
((lp147
(lp148
Vrevid
p149
aI835493352
aa(lp150
Vparentid
p151
aI820684844
aa(lp152
Vuser
p153
aVOtr500
p154
aa(lp155
Vtimestamp
p156
ag13
((I2018
I4
I9
I1
I10
I35
I0
I99
I-1
t(dtRp157
aa(lp158
Vcomment
p159
aV/* Other evidence of notability */ Boldly create subsection to avoid number duplicity in the same section.
p160
aatRp161
ag2
((lp162
(lp163
Vrevid
p164
aI820684844
aa(lp165
Vparentid
p166
aI820684813
aa(lp167
Vminor
p168
aV
aa(lp169
Vuser
p170
aVGaioa
p171
aa(lp172
Vtimestamp
p173
ag13
((I2018
I1
I16
I1
I3
I10
I1
I16
I-1
t(dtRp174
aa(lp175
Vcomment
p176
aV/* See also */
p177
aatRp178
ag2
((lp179
(lp180
Vrevid
p181
aI820684813
aa(lp182
Vparentid
p183
aI805414474
aa(lp184
Vminor
p185
aV
aa(lp186
Vuser
p187
aVGaioa
p188
aa(lp189
Vtimestamp
p190
ag13
((I2018
I1
I16
I1
I2
I58
I1
I16
I-1
t(dtRp191
aa(lp192
Vcomment
p193
aV/* See also */
p194
aatRp195
ag2
((lp196
(lp197
Vrevid
p198
aI805414474
aa(lp199
Vparentid
p200
aI805414441
aa(lp201
Vminor
p202
aV
aa(lp203
Vuser
p204
aVSerols
p205
aa(lp206
Vtimestamp
p207
ag13
((I2017
I10
I15
I6
I47
I42
I6
I288
I-1
t(dtRp208
aa(lp209
Vcomment
p210
aVReverted edits by [[Special:Contributions/5.126.252.95|5.126.252.95]] ([[User talk:5.126.252.95|talk]]) ([[WP:HG|HG]]) (3.2.0)
p211
aatRp212
ag2
((lp213
(lp214
Vrevid
p215
aI805414441
aa(lp216
Vparentid
p217
aI787706390
aa(lp218
Vuser
p219
aV5.126.252.95
p220
aa(lp221
Vanon
p222
aV
aa(lp223
Vtimestamp
p224
ag13
((I2017
I10
I15
I6
I47
I15
I6
I288
I-1
t(dtRp225
aa(lp226
Vcomment
p227
aV/* See also */
p228
aatRp229
ag2
((lp230
(lp231
Vrevid
p232
aI787706390
aa(lp233
Vparentid
p234
aI785537077
aa(lp235
Vminor
p236
aV
aa(lp237
Vuser
p238
aVFrostedPenguin87
p239
aa(lp240
Vtimestamp
p241
ag13
((I2017
I6
I27
I1
I39
I21
I1
I178
I-1
t(dtRp242
aa(lp243
Vcomment
p244
aV/* Reliable sources */ Bolded "significant coverage". This paragraph is very important but very easy to miss.
p245
aatRp246
ag2
((lp247
(lp248
Vrevid
p249
aI785537077
aa(lp250
Vparentid
p251
aI785536467
aa(lp252
Vminor
p253
aV
aa(lp254
Vuser
p255
aVC.Fred
p256
aa(lp257
Vtimestamp
p258
ag13
((I2017
I6
I14
I2
I33
I55
I2
I165
I-1
t(dtRp259
aa(lp260
Vcomment
p261
aVReverted edits by [[Special:Contribs/Gippi yadav722|Gippi yadav722]] ([[User talk:Gippi yadav722|talk]]) to last version by Hoverfish
p262
aatRp263
ag2
((lp264
(lp265
Vrevid
p266
aI785536467
aa(lp267
Vparentid
p268
aI785536351
aa(lp269
Vuser
p270
aVGippi yadav722
p271
aa(lp272
Vtimestamp
p273
ag13
((I2017
I6
I14
I2
I28
I36
I2
I165
I-1
t(dtRp274
aa(lp275
Vcomment
p276
aV/* Future films, incomplete films, and undistributed films */
p277
aatRp278
ag2
((lp279
(lp280
Vrevid
p281
aI785536351
aa(lp282
Vparentid
p283
aI785536224
aa(lp284
Vminor
p285
aV
aa(lp286
Vuser
p287
aVGippi yadav722
p288
aa(lp289
Vtimestamp
p290
ag13
((I2017
I6
I14
I2
I27
I35
I2
I165
I-1
t(dtRp291
aa(lp292
Vcomment
p293
aV/* Reliable sources */
p294
aatRp295
ag2
((lp296
(lp297
Vrevid
p298
aI785536224
aa(lp299
Vparentid
p300
aI781012621
aa(lp301
Vminor
p302
aV
aa(lp303
Vuser
p304
aVGippi yadav722
p305
aa(lp306
Vtimestamp
p307
ag13
((I2017
I6
I14
I2
I26
I30
I2
I165
I-1
t(dtRp308
aa(lp309
Vcomment
p310
aV/* Other evidence of notability */
p311
aatRp312
ag2
((lp313
(lp314
Vrevid
p315
aI781012621
aa(lp316
Vparentid
p317
aI770253954
aa(lp318
Vuser
p319
aVHoverfish
p320
aa(lp321
Vtimestamp
p322
ag13
((I2017
I5
I18
I15
I15
I8
I3
I138
I-1
t(dtRp323
aa(lp324
Vcomment
p325
aV/* Relevant debates */ archived here
p326
aatRp327
ag2
((lp328
(lp329
Vrevid
p330
aI770253954
aa(lp331
Vparentid
p332
aI749924139
aa(lp333
Vuser
p334
aVThryduulf
p335
aa(lp336
Vtimestamp
p337
ag13
((I2017
I3
I14
I10
I4
I26
I1
I73
I-1
t(dtRp338
aa(lp339
Vcomment
p340
aV/* Future films, incomplete films, and undistributed films */ add self-ref hatnote. I expected NFF to be an acronym for "non-free files"
p341
aatRp342
ag2
((lp343
(lp344
Vrevid
p345
aI749924139
aa(lp346
Vparentid
p347
aI747664180
aa(lp348
Vminor
p349
aV
aa(lp350
Vuser
p351
aVChris troutman
p352
aa(lp353
Vtimestamp
p354
ag13
((I2016
I11
I16
I22
I5
I12
I2
I321
I-1
t(dtRp355
aa(lp356
Vcomment
p357
aV/* Future films, incomplete films, and undistributed films */ per [[MOS:BOLD]]; please let's not use emphasis like this
p358
aatRp359
ag2
((lp360
(lp361
Vrevid
p362
aI747664180
aa(lp363
Vparentid
p364
aI733509943
aa(lp365
Vuser
p366
aVNorthamerica1000
p367
aa(lp368
Vtimestamp
p369
ag13
((I2016
I11
I3
I17
I22
I49
I3
I308
I-1
t(dtRp370
aa(lp371
Vcomment
p372
aV/* top */ Add shortcut atop page in box: WP:NFILM
p373
aatRp374
ag2
((lp375
(lp376
Vrevid
p377
aI733509943
aa(lp378
Vparentid
p379
aI728449521
aa(lp380
Vuser
p381
aVNorthamerica1000
p382
aa(lp383
Vtimestamp
p384
ag13
((I2016
I8
I8
I9
I22
I18
I0
I221
I-1
t(dtRp385
aa(lp386
Vcomment
p387
aV/* General principles */ + {{shortcut|WP:NFP}}
p388
aatRp389
ag2
((lp390
(lp391
Vrevid
p392
aI728449521
aa(lp393
Vparentid
p394
aI723781364
aa(lp395
Vuser
p396
aV69.38.133.138
p397
aa(lp398
Vanon
p399
aV
aa(lp400
Vtimestamp
p401
ag13
((I2016
I7
I5
I14
I37
I40
I1
I187
I-1
t(dtRp402
aa(lp403
Vcomment
p404
aVUndid revision 716076053 by [[Special:Contributions/103.255.6.165|103.255.6.165]] ([[User talk:103.255.6.165|talk]])
p405
aatRp406
ag2
((lp407
(lp408
Vrevid
p409
aI723781364
aa(lp410
Vparentid
p411
aI723781002
aa(lp412
Vuser
p413
aVNorthamerica1000
p414
aa(lp415
Vtimestamp
p416
ag13
((I2016
I6
I5
I5
I59
I16
I6
I157
I-1
t(dtRp417
aa(lp418
Vcomment
p419
aV/* Other evidence of notability */ add a shortcut
p420
aatRp421
ag2
((lp422
(lp423
Vrevid
p424
aI723781002
aa(lp425
Vparentid
p426
aI718286650
aa(lp427
Vuser
p428
aVNorthamerica1000
p429
aa(lp430
Vtimestamp
p431
ag13
((I2016
I6
I5
I5
I54
I54
I6
I157
I-1
t(dtRp432
aa(lp433
Vcomment
p434
aV/* Other evidence of notability */ + {{shortcut|WP:NFOE}}
p435
aatRp436
ag2
((lp437
(lp438
Vrevid
p439
aI718286650
aa(lp440
Vparentid
p441
aI718286349
aa(lp442
Vuser
p443
aVGSS
p444
aa(lp445
Vtimestamp
p446
ag13
((I2016
I5
I2
I17
I0
I32
I0
I123
I-1
t(dtRp447
aa(lp448
Vcomment
p449
aVReverted edits by [[Special:Contributions/101.210.255.232|101.210.255.232]] ([[User talk:101.210.255.232|talk]]) ([[WP:HG|HG]]) (3.1.19)
p450
aatRp451
ag2
((lp452
(lp453
Vrevid
p454
aI718286349
aa(lp455
Vparentid
p456
aI716076053
aa(lp457
Vuser
p458
aV101.210.255.232
p459
aa(lp460
Vanon
p461
aV
aa(lp462
Vtimestamp
p463
ag13
((I2016
I5
I2
I16
I58
I22
I0
I123
I-1
t(dtRp464
aa(lp465
Vcomment
p466
aV/* Notes */
p467
aatRp468
ag2
((lp469
(lp470
Vrevid
p471
aI716076053
aa(lp472
Vparentid
p473
aI715722878
aa(lp474
Vuser
p475
aV103.255.6.165
p476
aa(lp477
Vanon
p478
aV
aa(lp479
Vtimestamp
p480
ag13
((I2016
I4
I19
I19
I13
I22
I1
I110
I-1
t(dtRp481
aa(lp482
Vcomment
p483
aV
aatRp484
ag2
((lp485
(lp486
Vrevid
p487
aI715722878
aa(lp488
Vparentid
p489
aI697898410
aa(lp490
Vuser
p491
aVRingbang
p492
aa(lp493
Vtimestamp
p494
ag13
((I2016
I4
I17
I16
I22
I27
I6
I108
I-1
t(dtRp495
aa(lp496
Vcomment
p497
aV/* General principles */ copyedited
p498
aatRp499
ag2
((lp500
(lp501
Vrevid
p502
aI697898410
aa(lp503
Vparentid
p504
aI697855501
aa(lp505
Vuser
p506
aVShearonink
p507
aa(lp508
Vtimestamp
p509
ag13
((I2016
I1
I2
I17
I45
I6
I5
I2
I-1
t(dtRp510
aa(lp511
Vcomment
p512
aVReverted to revision 665979292 by [[Special:Contributions/MichaelQSchmidt|MichaelQSchmidt]] ([[User talk:MichaelQSchmidt|talk]]): Invalid edit. ([[WP:TW|TW]])
p513
aatRp514
ag2
((lp515
(lp516
Vrevid
p517
aI697855501
aa(lp518
Vparentid
p519
aI697855231
aa(lp520
Vuser
p521
aVMedievalstorytellers
p522
aa(lp523
Vtimestamp
p524
ag13
((I2016
I1
I2
I11
I1
I41
I5
I2
I-1
t(dtRp525
aa(lp526
Vcomment
p527
aV
aatRp528
ag2
((lp529
(lp530
Vrevid
p531
aI697855231
aa(lp532
Vparentid
p533
aI665979292
aa(lp534
Vuser
p535
aVMedievalstorytellers
p536
aa(lp537
Vtimestamp
p538
ag13
((I2016
I1
I2
I10
I58
I27
I5
I2
I-1
t(dtRp539
aa(lp540
Vcomment
p541
aV
aatRp542
ag2
((lp543
(lp544
Vrevid
p545
aI665979292
aa(lp546
Vparentid
p547
aI665671248
aa(lp548
Vuser
p549
aVMichaelQSchmidt
p550
aa(lp551
Vtimestamp
p552
ag13
((I2015
I6
I8
I2
I45
I9
I0
I159
I-1
t(dtRp553
aa(lp554
Vcomment
p555
aV/* Future films, incomplete films, and undistributed films */ added link to applicable guideline in answer to RFC at [[Wikipedia talk:Notability (films)#RFC: Link the word \u201cproduction\u201d in NFF]].
p556
aatRp557
ag2
((lp558
(lp559
Vrevid
p560
aI665671248
aa(lp561
Vparentid
p562
aI665671189
aa(lp563
Vminor
p564
aV
aa(lp565
Vuser
p566
aVK6ka
p567
aa(lp568
Vtimestamp
p569
ag13
((I2015
I6
I5
I21
I8
I39
I4
I156
I-1
t(dtRp570
aa(lp571
Vcomment
p572
aVReverted edits by [[Special:Contribs/Ather.niazi11|Ather.niazi11]] ([[User talk:Ather.niazi11|talk]]) to last version by 174.141.182.82
p573
aatRp574
ag2
((lp575
(lp576
Vrevid
p577
aI665671189
aa(lp578
Vparentid
p579
aI665247546
aa(lp580
Vuser
p581
aVAther.niazi11
p582
aa(lp583
Vtimestamp
p584
ag13
((I2015
I6
I5
I21
I8
I3
I4
I156
I-1
t(dtRp585
aa(lp586
Vcomment
p587
aV[[WP:AES|\u2190]]Replaced content with 'Ather'
p588
aatRp589
ag2
((lp590
(lp591
Vrevid
p592
aI665247546
aa(lp593
Vparentid
p594
aI665247496
aa(lp595
Vuser
p596
aV174.141.182.82
p597
aa(lp598
Vanon
p599
aV
aa(lp600
Vtimestamp
p601
ag13
((I2015
I6
I2
I23
I17
I23
I1
I153
I-1
t(dtRp602
aa(lp603
Vcomment
p604
aV/* Future films, incomplete films, and undistributed films */ appropriate comma
p605
aatRp606
ag2
((lp607
(lp608
Vrevid
p609
aI665247496
aa(lp610
Vparentid
p611
aI653052062
aa(lp612
Vuser
p613
aV174.141.182.82
p614
aa(lp615
Vanon
p616
aV
aa(lp617
Vtimestamp
p618
ag13
((I2015
I6
I2
I23
I16
I51
I1
I153
I-1
t(dtRp619
aa(lp620
Vcomment
p621
aV/* Future films, incomplete films, and undistributed films */ inappropriate commas
p622
aatRp623
ag2
((lp624
(lp625
Vrevid
p626
aI653052062
aa(lp627
Vparentid
p628
aI650574695
aa(lp629
Vuser
p630
aVLiam987
p631
aa(lp632
Vtimestamp
p633
ag13
((I2015
I3
I22
I19
I30
I54
I6
I81
I-1
t(dtRp634
aa(lp635
Vcomment
p636
aV/* Relevant debates */ unnecessary link to the article's own talk page
p637
aatRp638
ag2
((lp639
(lp640
Vrevid
p641
aI650574695
aa(lp642
Vparentid
p643
aI643554757
aa(lp644
Vuser
p645
aVNorthamerica1000
p646
aa(lp647
Vtimestamp
p648
ag13
((I2015
I3
I9
I7
I25
I43
I0
I68
I-1
t(dtRp649
aa(lp650
Vcomment
p651
aV/* Reliable sources */ + {{shortcut|WP:NFSOURCES}}
p652
aatRp653
ag2
((lp654
(lp655
Vrevid
p656
aI643554757
aa(lp657
Vparentid
p658
aI643550259
aa(lp659
Vuser
p660
aVErik
p661
aa(lp662
Vtimestamp
p663
ag13
((I2015
I1
I21
I19
I2
I40
I2
I21
I-1
t(dtRp664
aa(lp665
Vcomment
p666
aVUndid revision 643550259 by [[Special:Contributions/87.102.76.46|87.102.76.46]] ([[User talk:87.102.76.46|talk]]) Need to determine a consensus to include this criteria
p667
aatRp668
ag2
((lp669
(lp670
Vrevid
p671
aI643550259
aa(lp672
Vparentid
p673
aI642791411
aa(lp674
Vuser
p675
aV87.102.76.46
p676
aa(lp677
Vanon
p678
aV
aa(lp679
Vtimestamp
p680
ag13
((I2015
I1
I21
I18
I21
I31
I2
I21
I-1
t(dtRp681
aa(lp682
Vcomment
p683
aV/* Resources */
p684
aatRp685
ag2
((lp686
(lp687
Vrevid
p688
aI642791411
aa(lp689
Vparentid
p690
aI642761960
aa(lp691
Vuser
p692
aVBovineboy2008
p693
aa(lp694
Vtimestamp
p695
ag13
((I2015
I1
I16
I17
I36
I42
I4
I16
I-1
t(dtRp696
aa(lp697
Vcomment
p698
aVReverted [[WP:AGF|good faith]] edits by [[Special:Contributions/Cyrilcn10|Cyrilcn10]] ([[User talk:Cyrilcn10|talk]]). ([[WP:TW|TW]])
p699
aatRp700
ag2
((lp701
(lp702
Vrevid
p703
aI642761960
aa(lp704
Vparentid
p705
aI640777995
aa(lp706
Vminor
p707
aV
aa(lp708
Vuser
p709
aVCyrilcn10
p710
aa(lp711
Vtimestamp
p712
ag13
((I2015
I1
I16
I13
I15
I43
I4
I16
I-1
t(dtRp713
aa(lp714
Vcomment
p715
aV
aatRp716
ag2
((lp717
(lp718
Vrevid
p719
aI640777995
aa(lp720
Vparentid
p721
aI640777940
aa(lp722
Vuser
p723
aVSuperheroprashast
p724
aa(lp725
Vtimestamp
p726
ag13
((I2015
I1
I3
I9
I43
I26
I5
I3
I-1
t(dtRp727
aa(lp728
Vcomment
p729
aV/* Other evidence of notability */
p730
aatRp731
ag2
((lp732
(lp733
Vrevid
p734
aI640777940
aa(lp735
Vparentid
p736
aI610771387
aa(lp737
Vuser
p738
aVSuperheroprashast
p739
aa(lp740
Vtimestamp
p741
ag13
((I2015
I1
I3
I9
I42
I42
I5
I3
I-1
t(dtRp742
aa(lp743
Vcomment
p744
aV/* Other evidence of notability */
p745
aatRp746
ag2
((lp747
(lp748
Vrevid
p749
aI610771387
aa(lp750
Vparentid
p751
aI610771364
aa(lp752
Vminor
p753
aV
aa(lp754
Vuser
p755
aVLargoplazo
p756
aa(lp757
Vtimestamp
p758
ag13
((I2014
I5
I30
I10
I33
I58
I4
I150
I-1
t(dtRp759
aa(lp760
Vcomment
p761
aV/* Resources */
p762
aatRp763
ag2
((lp764
(lp765
Vrevid
p766
aI610771364
aa(lp767
Vparentid
p768
aI583373298
aa(lp769
Vminor
p770
aV
aa(lp771
Vuser
p772
aVLargoplazo
p773
aa(lp774
Vtimestamp
p775
ag13
((I2014
I5
I30
I10
I33
I43
I4
I150
I-1
t(dtRp776
aa(lp777
Vcomment
p778
aV/* Resources */ Copyedit.
p779
aatRp780
ag2
((lp781
(lp782
Vrevid
p783
aI583373298
aa(lp784
Vparentid
p785
aI566427988
aa(lp786
Vuser
p787
aVPigsonthewing
p788
aa(lp789
Vtimestamp
p790
ag13
((I2013
I11
I26
I11
I52
I43
I1
I330
I-1
t(dtRp791
aa(lp792
Vcomment
p793
aV/* See also */ Actors
p794
aatRp795
ag2
((lp796
(lp797
Vrevid
p798
aI566427988
aa(lp799
Vparentid
p800
aI552558583
aa(lp801
Vminor
p802
aV
aa(lp803
Vuser
p804
aVAddbot
p805
aa(lp806
Vtimestamp
p807
ag13
((I2013
I7
I30
I14
I1
I53
I1
I211
I-1
t(dtRp808
aa(lp809
Vcomment
p810
aV[[User:addbot|Bot]]: Migrating interwiki links, now provided by [[Wikipedia:Wikidata|Wikidata]] on [[d:q11888851]]
p811
aatRp812
ag2
((lp813
(lp814
Vrevid
p815
aI552558583
aa(lp816
Vparentid
p817
aI548947557
aa(lp818
Vminor
p819
aV
aa(lp820
Vuser
p821
aVAddbot
p822
aa(lp823
Vtimestamp
p824
ag13
((I2013
I4
I28
I12
I25
I9
I6
I118
I-1
t(dtRp825
aa(lp826
Vcomment
p827
aV[[User:Addbot|Bot:]] Migrating 5 interwiki links, now provided by [[Wikipedia:Wikidata|Wikidata]] on [[d:q11888851]]
p828
aatRp829
ag2
((lp830
(lp831
Vrevid
p832
aI548947557
aa(lp833
Vparentid
p834
aI545226439
aa(lp835
Vuser
p836
aVZ22
p837
aa(lp838
Vtimestamp
p839
ag13
((I2013
I4
I6
I5
I30
I6
I5
I96
I-1
t(dtRp840
aa(lp841
Vcomment
p842
aV/* See also */ Related topic: Wikipedia:Notability (media)
p843
aatRp844
ag2
((lp845
(lp846
Vrevid
p847
aI545226439
aa(lp848
Vparentid
p849
aI528172200
aa(lp850
Vminor
p851
aV
aa(lp852
Vuser
p853
aVChris the speller
p854
aa(lp855
Vtimestamp
p856
ag13
((I2013
I3
I18
I15
I33
I50
I0
I77
I-1
t(dtRp857
aa(lp858
Vcomment
p859
aVhyphenation
p860
aatRp861
ag2
((lp862
(lp863
Vrevid
p864
aI528172200
aa(lp865
Vparentid
p866
aI528168394
aa(lp867
Vminor
p868
aV
aa(lp869
Vuser
p870
aVBovineboy2008
p871
aa(lp872
Vtimestamp
p873
ag13
((I2012
I12
I15
I16
I19
I6
I5
I350
I-1
t(dtRp874
aa(lp875
Vcomment
p876
aVReverted 1 edit by [[Special:Contributions/94.76.76.129|94.76.76.129]] ([[User talk:94.76.76.129|talk]]) identified as [[WP:VAND|vandalism]] to last revision by Auchansa. ([[WP:TW|TW]])
p877
aatRp878
ag2
((lp879
(lp880
Vrevid
p881
aI528168394
aa(lp882
Vparentid
p883
aI527968189
aa(lp884
Vuser
p885
aV94.76.76.129
p886
aa(lp887
Vanon
p888
aV
aa(lp889
Vtimestamp
p890
ag13
((I2012
I12
I15
I15
I45
I0
I5
I350
I-1
t(dtRp891
aa(lp892
Vcomment
p893
aV/* Relevant debates */
p894
aatRp895
ag2
((lp896
(lp897
Vrevid
p898
aI527968189
aa(lp899
Vparentid
p900
aI527968046
aa(lp901
Vuser
p902
aVAuchansa
p903
aa(lp904
Vtimestamp
p905
ag13
((I2012
I12
I14
I4
I41
I22
I4
I349
I-1
t(dtRp906
aa(lp907
Vcomment
p908
aV/* Reliable sources */ reworded to avoid insulting IMDB and Leonard Malton, no need to make enemies for Wikipedia
p909
aatRp910
ag2
((lp911
(lp912
Vrevid
p913
aI527968046
aa(lp914
Vparentid
p915
aI522158554
aa(lp916
Vuser
p917
aVAuchansa
p918
aa(lp919
Vtimestamp
p920
ag13
((I2012
I12
I14
I4
I40
I9
I4
I349
I-1
t(dtRp921
aa(lp922
Vcomment
p923
aV/* Reliable sources */ reworded to avoid insulting IMDB and Leonard Malton, no need to make enemies for Wikipedia
p924
aatRp925
ag2
((lp926
(lp927
Vrevid
p928
aI522158554
aa(lp929
Vparentid
p930
aI522156293
aa(lp931
Vuser
p932
aVWoodensuperman
p933
aa(lp934
Vtimestamp
p935
ag13
((I2012
I11
I9
I10
I55
I51
I4
I314
I-1
t(dtRp936
aa(lp937
Vcomment
p938
aVUndid revision 522156293 by [[Special:Contributions/Uzma Gamal|Uzma Gamal]] ([[User talk:Uzma Gamal|talk]]) please propose changes to the guideline on the talk page.
p939
aatRp940
ag2
((lp941
(lp942
Vrevid
p943
aI522156293
aa(lp944
Vparentid
p945
aI518887087
aa(lp946
Vuser
p947
aVUzma Gamal
p948
aa(lp949
Vtimestamp
p950
ag13
((I2012
I11
I9
I10
I32
I20
I4
I314
I-1
t(dtRp951
aa(lp952
Vcomment
p953
aV/* Future films, incomplete films, and undistributed films */
p954
aatRp955
ag2
((lp956
(lp957
Vrevid
p958
aI518887087
aa(lp959
Vparentid
p960
aI499177764
aa(lp961
Vminor
p962
aV
aa(lp963
Vuser
p964
aVCzar
p965
aa(lp966
Vtimestamp
p967
ag13
((I2012
I10
I20
I16
I4
I11
I5
I294
I-1
t(dtRp968
aa(lp969
Vcomment
p970
aV/* Other evidence of notability */ ce
p971
aatRp972
ag2
((lp973
(lp974
Vrevid
p975
aI499177764
aa(lp976
Vparentid
p977
aI484222901
aa(lp978
Vminor
p979
aV
aa(lp980
Vuser
p981
aVRJHall
p982
aa(lp983
Vtimestamp
p984
ag13
((I2012
I6
I24
I19
I39
I29
I6
I176
I-1
t(dtRp985
aa(lp986
Vcomment
p987
aV/* Future films, incomplete films, and undistributed films */ Consolidating section hatnotes
p988
aatRp989
ag2
((lp990
(lp991
Vrevid
p992
aI484222901
aa(lp993
Vparentid
p994
aI484222048
aa(lp995
Vminor
p996
aV
aa(lp997
Vuser
p998
aVRenamedUser jaskldjslak901
p999
aa(lp1000
Vtimestamp
p1001
ag13
((I2012
I3
I27
I18
I47
I54
I1
I87
I-1
t(dtRp1002
aa(lp1003
Vcomment
p1004
aV[[Help:Reverting|Reverted]] edits by [[Special:Contributions/Sblove2010|Sblove2010]] ([[User talk:Sblove2010|talk]]) to last version by Metropolitan90
p1005
aatRp1006
ag2
((lp1007
(lp1008
Vrevid
p1009
aI484222048
aa(lp1010
Vparentid
p1011
aI484110116
aa(lp1012
Vminor
p1013
aV
aa(lp1014
Vuser
p1015
aVSblove2010
p1016
aa(lp1017
Vtimestamp
p1018
ag13
((I2012
I3
I27
I18
I42
I30
I1
I87
I-1
t(dtRp1019
aa(lp1020
Vcomment
p1021
aVShounak Muni Bose
p1022
aatRp1023
ag2
((lp1024
(lp1025
Vrevid
p1026
aI484110116
aa(lp1027
Vparentid
p1028
aI473688636
aa(lp1029
Vminor
p1030
aV
aa(lp1031
Vuser
p1032
aVMetropolitan90
p1033
aa(lp1034
Vtimestamp
p1035
ag13
((I2012
I3
I27
I1
I46
I8
I1
I87
I-1
t(dtRp1036
aa(lp1037
Vcomment
p1038
aV/* Future films, incomplete films, and undistributed films */
p1039
aatRp1040
ag2
((lp1041
(lp1042
Vrevid
p1043
aI473688636
aa(lp1044
Vparentid
p1045
aI468249514
aa(lp1046
Vminor
p1047
aV
aa(lp1048
Vuser
p1049
aVBender235
p1050
aa(lp1051
Vtimestamp
p1052
ag13
((I2012
I1
I28
I14
I15
I4
I5
I28
I-1
t(dtRp1053
aa(lp1054
Vcomment
p1055
aV/* Other evidence of notability */[[WP:AWB/T|Typo fixing]], typos fixed: ie.  \u2192 i.e. using [[Project:AWB|AWB]]
p1056
aatRp1057
ag2
((lp1058
(lp1059
Vrevid
p1060
aI468249514
aa(lp1061
Vparentid
p1062
aI467724781
aa(lp1063
Vuser
p1064
aVSilkTork
p1065
aa(lp1066
Vtimestamp
p1067
ag13
((I2011
I12
I29
I11
I0
I43
I3
I363
I-1
t(dtRp1068
aa(lp1069
Vcomment
p1070
aV/* Notes */ {{reflist}}
p1071
aatRp1072
ag2
((lp1073
(lp1074
Vrevid
p1075
aI467724781
aa(lp1076
Vparentid
p1077
aI467724722
aa(lp1078
Vuser
p1079
aVAuntof6
p1080
aa(lp1081
Vtimestamp
p1082
ag13
((I2011
I12
I26
I8
I12
I7
I0
I360
I-1
t(dtRp1083
aa(lp1084
Vcomment
p1085
aV/* General principles */ rem link
p1086
aatRp1087
ag2
((lp1088
(lp1089
Vrevid
p1090
aI467724722
aa(lp1091
Vparentid
p1092
aI460387339
aa(lp1093
Vminor
p1094
aV
aa(lp1095
Vuser
p1096
aVAuntof6
p1097
aa(lp1098
Vtimestamp
p1099
ag13
((I2011
I12
I26
I8
I11
I19
I0
I360
I-1
t(dtRp1100
aa(lp1101
Vcomment
p1102
aV/* General principles */ change "criteria" to "criterion" where singular form is needed
p1103
aatRp1104
ag2
((lp1105
(lp1106
Vrevid
p1107
aI460387339
aa(lp1108
Vparentid
p1109
aI455829445
aa(lp1110
Vuser
p1111
aVMichaelQSchmidt
p1112
aa(lp1113
Vtimestamp
p1114
ag13
((I2011
I11
I13
I3
I47
I22
I6
I317
I-1
t(dtRp1115
aa(lp1116
Vcomment
p1117
aV/* Future films, incomplete films, and undistributed films */ add link to pertinant essay
p1118
aatRp1119
ag2
((lp1120
(lp1121
Vrevid
p1122
aI455829445
aa(lp1123
Vparentid
p1124
aI447271579
aa(lp1125
Vminor
p1126
aV
aa(lp1127
Vuser
p1128
aVGuillaume2303
p1129
aa(lp1130
Vtimestamp
p1131
ag13
((I2011
I10
I16
I11
I20
I3
I6
I289
I-1
t(dtRp1132
aa(lp1133
Vcomment
p1134
aV/* Other evidence of notability */ gram
p1135
aatRp1136
ag2
((lp1137
(lp1138
Vrevid
p1139
aI447271579
aa(lp1140
Vparentid
p1141
aI447270001
aa(lp1142
Vuser
p1143
aVJonkerz
p1144
aa(lp1145
Vtimestamp
p1146
ag13
((I2011
I8
I29
I6
I55
I27
I0
I241
I-1
t(dtRp1147
aa(lp1148
Vcomment
p1149
aVReverted 1 edit by [[Special:Contributions/Muneeb2000|Muneeb2000]] ([[User talk:Muneeb2000|talk]]): Was this removed by mistake? ([[WP:TW|TW]])
p1150
aatRp1151
ag2
((lp1152
(lp1153
Vrevid
p1154
aI447270001
aa(lp1155
Vparentid
p1156
aI438434054
aa(lp1157
Vuser
p1158
aVMuneeb2000
p1159
aa(lp1160
Vtimestamp
p1161
ag13
((I2011
I8
I29
I6
I42
I52
I0
I241
I-1
t(dtRp1162
aa(lp1163
Vcomment
p1164
aV
aatRp1165
ag2
((lp1166
(lp1167
Vrevid
p1168
aI438434054
aa(lp1169
Vparentid
p1170
aI438433932
aa(lp1171
Vminor
p1172
aV
aa(lp1173
Vuser
p1174
aVErik
p1175
aa(lp1176
Vtimestamp
p1177
ag13
((I2011
I7
I8
I16
I18
I48
I4
I189
I-1
t(dtRp1178
aa(lp1179
Vcomment
p1180
aV/* Reliable sources */ clarify
p1181
aatRp1182
ag2
((lp1183
(lp1184
Vrevid
p1185
aI438433932
aa(lp1186
Vparentid
p1187
aI438427975
aa(lp1188
Vuser
p1189
aVErik
p1190
aa(lp1191
Vtimestamp
p1192
ag13
((I2011
I7
I8
I16
I17
I55
I4
I189
I-1
t(dtRp1193
aa(lp1194
Vcomment
p1195
aV/* Reliable sources */ Revised section to highlight independence and reliability
p1196
aatRp1197
ag2
((lp1198
(lp1199
Vrevid
p1200
aI438427975
aa(lp1201
Vparentid
p1202
aI438424351
aa(lp1203
Vuser
p1204
aVErik
p1205
aa(lp1206
Vtimestamp
p1207
ag13
((I2011
I7
I8
I15
I32
I33
I4
I189
I-1
t(dtRp1208
aa(lp1209
Vcomment
p1210
aVRevised lead section per talk page concern; moving GNG more upfront
p1211
aatRp1212
ag2
((lp1213
(lp1214
Vrevid
p1215
aI438424351
aa(lp1216
Vparentid
p1217
aI430687134
aa(lp1218
Vuser
p1219
aVErik
p1220
aa(lp1221
Vtimestamp
p1222
ag13
((I2011
I7
I8
I15
I3
I32
I4
I189
I-1
t(dtRp1223
aa(lp1224
Vcomment
p1225
aVRevised lead section, general principles, other evidence of notability; meaning should be the same, just more cleaned-up prose
p1226
aatRp1227
ag2
((lp1228
(lp1229
Vrevid
p1230
aI430687134
aa(lp1231
Vparentid
p1232
aI430651953
aa(lp1233
Vuser
p1234
aVWhatamIdoing
p1235
aa(lp1236
Vtimestamp
p1237
ag13
((I2011
I5
I24
I15
I28
I14
I1
I144
I-1
t(dtRp1238
aa(lp1239
Vcomment
p1240
aV/* General principles */ Rules of thumb\u2014must always use best judgment
p1241
aatRp1242
ag2
((lp1243
(lp1244
Vrevid
p1245
aI430651953
aa(lp1246
Vparentid
p1247
aI428604506
aa(lp1248
Vuser
p1249
aVJayantanth
p1250
aa(lp1251
Vtimestamp
p1252
ag13
((I2011
I5
I24
I9
I29
I49
I1
I144
I-1
t(dtRp1253
aa(lp1254
Vcomment
p1255
aV+bn
p1256
aatRp1257
ag2
((lp1258
(lp1259
Vrevid
p1260
aI428604506
aa(lp1261
Vparentid
p1262
aI417615213
aa(lp1263
Vuser
p1264
aVWoknam66
p1265
aa(lp1266
Vtimestamp
p1267
ag13
((I2011
I5
I11
I16
I30
I10
I2
I131
I-1
t(dtRp1268
aa(lp1269
Vcomment
p1270
aV[[WP:MOVIE]] also redirects here.
p1271
aatRp1272
ag2
((lp1273
(lp1274
Vrevid
p1275
aI417615213
aa(lp1276
Vparentid
p1277
aI414986085
aa(lp1278
Vuser
p1279
aVJonkerz
p1280
aa(lp1281
Vtimestamp
p1282
ag13
((I2011
I3
I7
I15
I46
I42
I0
I66
I-1
t(dtRp1283
aa(lp1284
Vcomment
p1285
aV/* General principles */ wls
p1286
aatRp1287
ag2
((lp1288
(lp1289
Vrevid
p1290
aI414986085
aa(lp1291
Vparentid
p1292
aI413409371
aa(lp1293
Vuser
p1294
aVJasonAQuest
p1295
aa(lp1296
Vtimestamp
p1297
ag13
((I2011
I2
I20
I18
I36
I55
I6
I51
I-1
t(dtRp1298
aa(lp1299
Vcomment
p1300
aV/* Future films, incomplete films, and undistributed films */ celebrity status of voice actors should not matter
p1301
aatRp1302
ag2
((lp1303
(lp1304
Vrevid
p1305
aI413409371
aa(lp1306
Vparentid
p1307
aI412273894
aa(lp1308
Vuser
p1309
aVDoctorHver
p1310
aa(lp1311
Vtimestamp
p1312
ag13
((I2011
I2
I12
I2
I14
I0
I5
I43
I-1
t(dtRp1313
aa(lp1314
Vcomment
p1315
aV/* Resources */ There more databases than IMDB,
p1316
aatRp1317
ag2
((lp1318
(lp1319
Vrevid
p1320
aI412273894
aa(lp1321
Vparentid
p1322
aI411241927
aa(lp1323
Vminor
p1324
aV
aa(lp1325
Vuser
p1326
aVPolisher of Cobwebs
p1327
aa(lp1328
Vtimestamp
p1329
ag13
((I2011
I2
I6
I2
I57
I31
I6
I37
I-1
t(dtRp1330
aa(lp1331
Vcomment
p1332
aV/* Future films, incomplete films, and undistributed films */  formatting
p1333
aatRp1334
ag2
((lp1335
(lp1336
Vrevid
p1337
aI411241927
aa(lp1338
Vparentid
p1339
aI411235120
aa(lp1340
Vuser
p1341
aVBig Bird
p1342
aa(lp1343
Vtimestamp
p1344
ag13
((I2011
I1
I31
I21
I11
I52
I0
I31
I-1
t(dtRp1345
aa(lp1346
Vcomment
p1347
aV/* Future films, incomplete films, and undistributed films */ remove "generally". generally acceptable exceptions are specifically listed.
p1348
aatRp1349
ag2
((lp1350
(lp1351
Vrevid
p1352
aI411235120
aa(lp1353
Vparentid
p1354
aI411234765
aa(lp1355
Vuser
p1356
aVMichaelQSchmidt
p1357
aa(lp1358
Vtimestamp
p1359
ag13
((I2011
I1
I31
I20
I40
I23
I0
I31
I-1
t(dtRp1360
aa(lp1361
Vcomment
p1362
aV/* Future films, incomplete films, and undistributed films */ generally
p1363
aatRp1364
ag2
((lp1365
(lp1366
Vrevid
p1367
aI411234765
aa(lp1368
Vparentid
p1369
aI411232273
aa(lp1370
Vuser
p1371
aVMichaelQSchmidt
p1372
aa(lp1373
Vtimestamp
p1374
ag13
((I2011
I1
I31
I20
I38
I49
I0
I31
I-1
t(dtRp1375
aa(lp1376
Vcomment
p1377
aV/* Future films, incomplete films, and undistributed films */ typo
p1378
aatRp1379
ag2
((lp1380
(lp1381
Vrevid
p1382
aI411232273
aa(lp1383
Vparentid
p1384
aI403709526
aa(lp1385
Vuser
p1386
aVMichaelQSchmidt
p1387
aa(lp1388
Vtimestamp
p1389
ag13
((I2011
I1
I31
I20
I27
I21
I0
I31
I-1
t(dtRp1390
aa(lp1391
Vcomment
p1392
aV/* Future films, incomplete films, and undistributed films */ might if available & generally
p1393
aatRp1394
ag2
((lp1395
(lp1396
Vrevid
p1397
aI403709526
aa(lp1398
Vparentid
p1399
aI403672176
aa(lp1400
Vuser
p1401
aVScottywong
p1402
aa(lp1403
Vtimestamp
p1404
ag13
((I2010
I12
I22
I15
I2
I23
I2
I356
I-1
t(dtRp1405
aa(lp1406
Vcomment
p1407
aVUndid revision 403672176 by [[Special:Contributions/Knight rider club|Knight rider club]] ([[User talk:Knight rider club|talk]]) rv redlink spam category
p1408
aatRp1409
ag2
((lp1410
(lp1411
Vrevid
p1412
aI403672176
aa(lp1413
Vparentid
p1414
aI387467853
aa(lp1415
Vuser
p1416
aVKnight rider club
p1417
aa(lp1418
Vtimestamp
p1419
ag13
((I2010
I12
I22
I8
I54
I37
I2
I356
I-1
t(dtRp1420
aa(lp1421
Vcomment
p1422
aVadded [[Category:A Productions]] using [[WP:HC|HotCat]]
p1423
aatRp1424
ag2
((lp1425
(lp1426
Vrevid
p1427
aI387467853
aa(lp1428
Vparentid
p1429
aI383891722
aa(lp1430
Vminor
p1431
aV
aa(lp1432
Vuser
p1433
aVNatGertler
p1434
aa(lp1435
Vtimestamp
p1436
ag13
((I2010
I9
I28
I5
I23
I14
I1
I271
I-1
t(dtRp1437
aa(lp1438
Vcomment
p1439
aVclean up wikilink
p1440
aatRp1441
ag2
((lp1442
(lp1443
Vrevid
p1444
aI383891722
aa(lp1445
Vparentid
p1446
aI383836764
aa(lp1447
Vminor
p1448
aV
aa(lp1449
Vuser
p1450
aVErik
p1451
aa(lp1452
Vtimestamp
p1453
ag13
((I2010
I9
I9
I19
I41
I35
I3
I252
I-1
t(dtRp1454
aa(lp1455
Vcomment
p1456
aV[[Help:Reverting|Reverted]] edits by [[Special:Contributions/Erik|Erik]] ([[User talk:Erik|talk]]) to last version by DARTH SIDIOUS 2
p1457
aatRp1458
ag2
((lp1459
(lp1460
Vrevid
p1461
aI383836764
aa(lp1462
Vparentid
p1463
aI383105976
aa(lp1464
Vuser
p1465
aVErik
p1466
aa(lp1467
Vtimestamp
p1468
ag13
((I2010
I9
I9
I14
I15
I26
I3
I252
I-1
t(dtRp1469
aa(lp1470
Vcomment
p1471
aV/* Future films, incomplete films, and undistributed films */ Basing WP:NFF on [[WP:NOT#NEWS]]
p1472
aatRp1473
ag2
((lp1474
(lp1475
Vrevid
p1476
aI383105976
aa(lp1477
Vparentid
p1478
aI383105957
aa(lp1479
Vminor
p1480
aV
aa(lp1481
Vuser
p1482
aVDARTH SIDIOUS 2
p1483
aa(lp1484
Vtimestamp
p1485
ag13
((I2010
I9
I5
I19
I24
I55
I6
I248
I-1
t(dtRp1486
aa(lp1487
Vcomment
p1488
aVReverted edits by [[Special:Contributions/173.23.130.98|173.23.130.98]] ([[User talk:173.23.130.98|talk]]) to last revision by DARTH SIDIOUS 2 ([[WP:HG|HG]])
p1489
aatRp1490
ag2
((lp1491
(lp1492
Vrevid
p1493
aI383105957
aa(lp1494
Vparentid
p1495
aI383105861
aa(lp1496
Vuser
p1497
aV173.23.130.98
p1498
aa(lp1499
Vanon
p1500
aV
aa(lp1501
Vtimestamp
p1502
ag13
((I2010
I9
I5
I19
I24
I50
I6
I248
I-1
t(dtRp1503
aa(lp1504
Vcomment
p1505
aV/* Other evidence of notability */
p1506
aatRp1507
ag2
((lp1508
(lp1509
Vrevid
p1510
aI383105861
aa(lp1511
Vparentid
p1512
aI383105839
aa(lp1513
Vminor
p1514
aV
aa(lp1515
Vuser
p1516
aVDARTH SIDIOUS 2
p1517
aa(lp1518
Vtimestamp
p1519
ag13
((I2010
I9
I5
I19
I24
I14
I6
I248
I-1
t(dtRp1520
aa(lp1521
Vcomment
p1522
aVReverted edits by [[Special:Contributions/173.23.130.98|173.23.130.98]] ([[User talk:173.23.130.98|talk]]) to last revision by DARTH SIDIOUS 2 ([[WP:HG|HG]])
p1523
aatRp1524
ag2
((lp1525
(lp1526
Vrevid
p1527
aI383105839
aa(lp1528
Vparentid
p1529
aI383105715
aa(lp1530
Vuser
p1531
aV173.23.130.98
p1532
aa(lp1533
Vanon
p1534
aV
aa(lp1535
Vtimestamp
p1536
ag13
((I2010
I9
I5
I19
I24
I2
I6
I248
I-1
t(dtRp1537
aa(lp1538
Vcomment
p1539
aV/* General principles */
p1540
aatRp1541
ag2
((lp1542
(lp1543
Vrevid
p1544
aI383105715
aa(lp1545
Vparentid
p1546
aI383105679
aa(lp1547
Vminor
p1548
aV
aa(lp1549
Vuser
p1550
aVDARTH SIDIOUS 2
p1551
aa(lp1552
Vtimestamp
p1553
ag13
((I2010
I9
I5
I19
I23
I22
I6
I248
I-1
t(dtRp1554
aa(lp1555
Vcomment
p1556
aVReverted edits by [[Special:Contributions/173.23.130.98|173.23.130.98]] ([[User talk:173.23.130.98|talk]]) to last revision by Bignole ([[WP:HG|HG]])
p1557
aatRp1558
ag2
((lp1559
(lp1560
Vrevid
p1561
aI383105679
aa(lp1562
Vparentid
p1563
aI383104948
aa(lp1564
Vuser
p1565
aV173.23.130.98
p1566
aa(lp1567
Vanon
p1568
aV
aa(lp1569
Vtimestamp
p1570
ag13
((I2010
I9
I5
I19
I23
I10
I6
I248
I-1
t(dtRp1571
aa(lp1572
Vcomment
p1573
aV/* Other evidence of notability */
p1574
aatRp1575
ag2
((lp1576
(lp1577
Vrevid
p1578
aI383104948
aa(lp1579
Vparentid
p1580
aI383104384
aa(lp1581
Vuser
p1582
aVBignole
p1583
aa(lp1584
Vtimestamp
p1585
ag13
((I2010
I9
I5
I19
I18
I57
I6
I248
I-1
t(dtRp1586
aa(lp1587
Vcomment
p1588
aVUndid revision 383104384 by [[Special:Contributions/173.23.130.98|173.23.130.98]] ([[User talk:173.23.130.98|talk]])
p1589
aatRp1590
ag2
((lp1591
(lp1592
Vrevid
p1593
aI383104384
aa(lp1594
Vparentid
p1595
aI379428443
aa(lp1596
Vuser
p1597
aV173.23.130.98
p1598
aa(lp1599
Vanon
p1600
aV
aa(lp1601
Vtimestamp
p1602
ag13
((I2010
I9
I5
I19
I15
I51
I6
I248
I-1
t(dtRp1603
aa(lp1604
Vcomment
p1605
aV/* General principles */
p1606
aatRp1607
ag2
((lp1608
(lp1609
Vrevid
p1610
aI379428443
aa(lp1611
Vparentid
p1612
aI379428380
aa(lp1613
Vminor
p1614
aV
aa(lp1615
Vuser
p1616
aVDARTH SIDIOUS 2
p1617
aa(lp1618
Vtimestamp
p1619
ag13
((I2010
I8
I17
I17
I8
I19
I1
I229
I-1
t(dtRp1620
aa(lp1621
Vcomment
p1622
aV[[Help:Reverting|Reverted]] edits by [[Special:Contributions/Abel metre|Abel metre]] ([[User talk:Abel metre|talk]]) to last version by MichaelQSchmidt
p1623
aatRp1624
ag2
((lp1625
(lp1626
Vrevid
p1627
aI379428380
aa(lp1628
Vparentid
p1629
aI370128379
aa(lp1630
Vuser
p1631
aVAbel metre
p1632
aa(lp1633
Vtimestamp
p1634
ag13
((I2010
I8
I17
I17
I7
I54
I1
I229
I-1
t(dtRp1635
aa(lp1636
Vcomment
p1637
aV/* General principles */
p1638
aatRp1639
ag2
((lp1640
(lp1641
Vrevid
p1642
aI370128379
aa(lp1643
Vparentid
p1644
aI370127527
aa(lp1645
Vminor
p1646
aV
aa(lp1647
Vuser
p1648
aVMichaelQSchmidt
p1649
aa(lp1650
Vtimestamp
p1651
ag13
((I2010
I6
I25
I18
I13
I50
I4
I176
I-1
t(dtRp1652
aa(lp1653
Vcomment
p1654
aV[[Help:Reverting|Reverted]] edits by [[Special:Contributions/MichaelQSchmidt|MichaelQSchmidt]] ([[User talk:MichaelQSchmidt|talk]]) to last version by Snottywong
p1655
aatRp1656
ag2
((lp1657
(lp1658
Vrevid
p1659
aI370127527
aa(lp1660
Vparentid
p1661
aI370113021
aa(lp1662
Vuser
p1663
aVMichaelQSchmidt
p1664
aa(lp1665
Vtimestamp
p1666
ag13
((I2010
I6
I25
I18
I7
I40
I4
I176
I-1
t(dtRp1667
aa(lp1668
Vcomment
p1669
aV(Undid revision Snottywong (talk), until such time as his change to existing guideline in support his own POV gains wider consesnsus through a wider discussion. He is welcome to RFC
p1670
aatRp1671
ag2
((lp1672
(lp1673
Vrevid
p1674
aI370113021
aa(lp1675
Vparentid
p1676
aI369639043
aa(lp1677
Vuser
p1678
aVScottywong
p1679
aa(lp1680
Vtimestamp
p1681
ag13
((I2010
I6
I25
I16
I28
I51
I4
I176
I-1
t(dtRp1682
aa(lp1683
Vcomment
p1684
aV/* Future films, incomplete films, and undistributed films */ clarifying notability of future animated films per consensus established on talk page
p1685
aatRp1686
ag2
((lp1687
(lp1688
Vrevid
p1689
aI369639043
aa(lp1690
Vparentid
p1691
aI369638890
aa(lp1692
Vuser
p1693
aVAnmaFinotera
p1694
aa(lp1695
Vtimestamp
p1696
ag13
((I2010
I6
I22
I23
I33
I45
I1
I173
I-1
t(dtRp1697
aa(lp1698
Vcomment
p1699
aVUndid revision 369638890 by [[Special:Contributions/Snottywong|Snottywong]] ([[User talk:Snottywong|talk]]) while I agree in theory, probably a good idea to confirm how the animated film process works to sure the wording reflects the equivalent
p1700
aatRp1701
ag2
((lp1702
(lp1703
Vrevid
p1704
aI369638890
aa(lp1705
Vparentid
p1706
aI343845393
aa(lp1707
Vuser
p1708
aVScottywong
p1709
aa(lp1710
Vtimestamp
p1711
ag13
((I2010
I6
I22
I23
I32
I30
I1
I173
I-1
t(dtRp1712
aa(lp1713
Vcomment
p1714
aV/* Future films, incomplete films, and undistributed films */ being bold and adding clarification for notability of future animated films. See my unanswered comments on the talk page before reverting.
p1715
aatRp1716
ag2
((lp1717
(lp1718
Vrevid
p1719
aI343845393
aa(lp1720
Vparentid
p1721
aI342309336
aa(lp1722
Vminor
p1723
aV
aa(lp1724
Vuser
p1725
aVTcp-ip
p1726
aa(lp1727
Vtimestamp
p1728
ag13
((I2010
I2
I13
I23
I7
I35
I5
I44
I-1
t(dtRp1729
aa(lp1730
Vcomment
p1731
aVfixed broken link
p1732
aatRp1733
ag2
((lp1734
(lp1735
Vrevid
p1736
aI342309336
aa(lp1737
Vparentid
p1738
aI342309327
aa(lp1739
Vminor
p1740
aV
aa(lp1741
Vuser
p1742
aVLcawteHuggle
p1743
aa(lp1744
Vtimestamp
p1745
ag13
((I2010
I2
I6
I16
I26
I28
I5
I37
I-1
t(dtRp1746
aa(lp1747
Vcomment
p1748
aVReverted edits by [[Special:Contributions/Bonerboy123|Bonerboy123]] to last revision by LtNOWIS ([[WP:HG|HG]])
p1749
aatRp1750
ag2
((lp1751
(lp1752
Vrevid
p1753
aI342309327
aa(lp1754
Vparentid
p1755
aI330213309
aa(lp1756
Vuser
p1757
aVBonerboy123
p1758
aa(lp1759
Vtimestamp
p1760
ag13
((I2010
I2
I6
I16
I26
I24
I5
I37
I-1
t(dtRp1761
aa(lp1762
Vcomment
p1763
aV[[WP:AES|\u2190]]Blanked the page
p1764
aatRp1765
ag2
((lp1766
(lp1767
Vrevid
p1768
aI330213309
aa(lp1769
Vparentid
p1770
aI330213280
aa(lp1771
Vuser
p1772
aVLtNOWIS
p1773
aa(lp1774
Vtimestamp
p1775
ag13
((I2009
I12
I7
I8
I50
I41
I0
I341
I-1
t(dtRp1776
aa(lp1777
Vcomment
p1778
aVrevert
p1779
aatRp1780
ag2
((lp1781
(lp1782
Vrevid
p1783
aI330213280
aa(lp1784
Vparentid
p1785
aI330213212
aa(lp1786
Vuser
p1787
aV122.165.52.198
p1788
aa(lp1789
Vanon
p1790
aV
aa(lp1791
Vtimestamp
p1792
ag13
((I2009
I12
I7
I8
I50
I14
I0
I341
I-1
t(dtRp1793
aa(lp1794
Vcomment
p1795
aV/* Other evidence of notability */
p1796
aatRp1797
ag2
((lp1798
(lp1799
Vrevid
p1800
aI330213212
aa(lp1801
Vparentid
p1802
aI330213147
aa(lp1803
Vuser
p1804
aV122.165.52.198
p1805
aa(lp1806
Vanon
p1807
aV
aa(lp1808
Vtimestamp
p1809
ag13
((I2009
I12
I7
I8
I49
I23
I0
I341
I-1
t(dtRp1810
aa(lp1811
Vcomment
p1812
aV/* Future films, incomplete films, and undistributed films */
p1813
aatRp1814
ag2
((lp1815
(lp1816
Vrevid
p1817
aI330213147
aa(lp1818
Vparentid
p1819
aI330071761
aa(lp1820
Vuser
p1821
aV122.165.52.198
p1822
aa(lp1823
Vanon
p1824
aV
aa(lp1825
Vtimestamp
p1826
ag13
((I2009
I12
I7
I8
I48
I39
I0
I341
I-1
t(dtRp1827
aa(lp1828
Vcomment
p1829
aV/* General principles */
p1830
aatRp1831
ag2
((lp1832
(lp1833
Vrevid
p1834
aI330071761
aa(lp1835
Vparentid
p1836
aI330070502
aa(lp1837
Vuser
p1838
aVAnmaFinotera
p1839
aa(lp1840
Vtimestamp
p1841
ag13
((I2009
I12
I6
I15
I35
I39
I6
I340
I-1
t(dtRp1842
aa(lp1843
Vcomment
p1844
aV[[WP:UNDO|Undid]] revision 330069874 by [[Special:Contributions/OnBeyondZebrax|OnBeyondZebrax]] ([[User talk:OnBeyondZebrax|talk]]) changes meaning; needs discussion/consensus - seems excessive to me, that's a given
p1845
aatRp1846
ag2
((lp1847
(lp1848
Vrevid
p1849
aI330070502
aa(lp1850
Vparentid
p1851
aI330069874
aa(lp1852
Vuser
p1853
aVPC78
p1854
aa(lp1855
Vtimestamp
p1856
ag13
((I2009
I12
I6
I15
I25
I8
I6
I340
I-1
t(dtRp1857
aa(lp1858
Vcomment
p1859
aV[[WP:UNDO|Undid]] revision 330067459 by [[Special:Contributions/OnBeyondZebrax|OnBeyondZebrax]] ([[User talk:OnBeyondZebrax|talk]]); poster has nothing to do with that part of the guideline
p1860
aatRp1861
ag2
((lp1862
(lp1863
Vrevid
p1864
aI330069874
aa(lp1865
Vparentid
p1866
aI330067459
aa(lp1867
Vuser
p1868
aVOnBeyondZebrax
p1869
aa(lp1870
Vtimestamp
p1871
ag13
((I2009
I12
I6
I15
I19
I28
I6
I340
I-1
t(dtRp1872
aa(lp1873
Vcomment
p1874
aV/* Other evidence of notability */ A film is only a unique accomplishment if a reputable source says so in print...not just because a Wikipedia loved it and thought it was a masterwork
p1875
aatRp1876
ag2
((lp1877
(lp1878
Vrevid
p1879
aI330067459
aa(lp1880
Vparentid
p1881
aI329447308
aa(lp1882
Vuser
p1883
aVOnBeyondZebrax
p1884
aa(lp1885
Vtimestamp
p1886
ag13
((I2009
I12
I6
I14
I58
I5
I6
I340
I-1
t(dtRp1887
aa(lp1888
Vcomment
p1889
aV/* General principles */ peter pan movie poster 1924, from Wikimed Commons
p1890
aatRp1891
ag2
((lp1892
(lp1893
Vrevid
p1894
aI329447308
aa(lp1895
Vparentid
p1896
aI329427102
aa(lp1897
Vuser
p1898
aVErik
p1899
aa(lp1900
Vtimestamp
p1901
ag13
((I2009
I12
I3
I13
I0
I22
I3
I337
I-1
t(dtRp1902
aa(lp1903
Vcomment
p1904
aVRevert inappropriate change; WP:MOVIE should go to WP:FILM
p1905
aatRp1906
ag2
((lp1907
(lp1908
Vrevid
p1909
aI329427102
aa(lp1910
Vparentid
p1911
aI305665297
aa(lp1912
Vuser
p1913
aVGavin.collins
p1914
aa(lp1915
Vtimestamp
p1916
ag13
((I2009
I12
I3
I9
I43
I24
I3
I337
I-1
t(dtRp1917
aa(lp1918
Vcomment
p1919
aV[[WP:MOVIE]]
p1920
aatRp1921
ag2
((lp1922
(lp1923
Vrevid
p1924
aI305665297
aa(lp1925
Vparentid
p1926
aI305663165
aa(lp1927
Vuser
p1928
aVAnmaFinotera
p1929
aa(lp1930
Vtimestamp
p1931
ag13
((I2009
I8
I2
I17
I49
I39
I6
I214
I-1
t(dtRp1932
aa(lp1933
Vcomment
p1934
aV[[WP:UNDO|Undid]] revision 305663165 by [[Special:Contributions/User F203|User F203]] ([[User talk:User F203|talk]]) rv; not "common sense" and requires discussion
p1935
aatRp1936
ag2
((lp1937
(lp1938
Vrevid
p1939
aI305663165
aa(lp1940
Vparentid
p1941
aI297845153
aa(lp1942
Vuser
p1943
aVUser F203
p1944
aa(lp1945
Vtimestamp
p1946
ag13
((I2009
I8
I2
I17
I35
I8
I6
I214
I-1
t(dtRp1947
aa(lp1948
Vcomment
p1949
aV/* General principles */ stating the obvious, if controversial, let's talk
p1950
aatRp1951
ag2
((lp1952
(lp1953
Vrevid
p1954
aI297845153
aa(lp1955
Vparentid
p1956
aI295143897
aa(lp1957
Vuser
p1958
aVCybercobra
p1959
aa(lp1960
Vtimestamp
p1961
ag13
((I2009
I6
I22
I3
I28
I29
I0
I173
I-1
t(dtRp1962
aa(lp1963
Vcomment
p1964
aV/* Relevant debates */ fragment, unnecessary
p1965
aatRp1966
ag2
((lp1967
(lp1968
Vrevid
p1969
aI295143897
aa(lp1970
Vparentid
p1971
aI290351365
aa(lp1972
Vuser
p1973
aVVinhtantran
p1974
aa(lp1975
Vtimestamp
p1976
ag13
((I2009
I6
I8
I9
I51
I56
I0
I159
I-1
t(dtRp1977
aa(lp1978
Vcomment
p1979
aV/* Relevant debates */
p1980
aatRp1981
ag2
((lp1982
(lp1983
Vrevid
p1984
aI290351365
aa(lp1985
Vparentid
p1986
aI290350093
aa(lp1987
Vuser
p1988
aVPC78
p1989
aa(lp1990
Vtimestamp
p1991
ag13
((I2009
I5
I16
I17
I47
I4
I5
I136
I-1
t(dtRp1992
aa(lp1993
Vcomment
p1994
aVrv; so let's come up with a wording for it then, but let's do that *before* we add it to the guideline
p1995
aatRp1996
ag2
((lp1997
(lp1998
Vrevid
p1999
aI290350093
aa(lp2000
Vparentid
p2001
aI285514587
aa(lp2002
Vuser
p2003
aVGoodraise
p2004
aa(lp2005
Vtimestamp
p2006
ag13
((I2009
I5
I16
I17
I38
I24
I5
I136
I-1
t(dtRp2007
aa(lp2008
Vcomment
p2009
aVUndid revision 284522748 by Girolamo Savonarola. Judging from the [[Wikipedia talk:Notability (films)#Box office ranking|discussion]], consensus appears to be that BO rankings can be used. Only question left is how exactly to word it.
p2010
aatRp2011
ag2
((lp2012
(lp2013
Vrevid
p2014
aI285514587
aa(lp2015
Vparentid
p2016
aI284522748
aa(lp2017
Vuser
p2018
aVPC78
p2019
aa(lp2020
Vtimestamp
p2021
ag13
((I2009
I4
I22
I20
I33
I4
I2
I112
I-1
t(dtRp2022
aa(lp2023
Vcomment
p2024
aVshortcut
p2025
aatRp2026
ag2
((lp2027
(lp2028
Vrevid
p2029
aI284522748
aa(lp2030
Vparentid
p2031
aI284457001
aa(lp2032
Vuser
p2033
aVGirolamo Savonarola
p2034
aa(lp2035
Vtimestamp
p2036
ag13
((I2009
I4
I17
I23
I40
I48
I4
I107
I-1
t(dtRp2037
aa(lp2038
Vcomment
p2039
aVrv - appreciate the boldness, now let's talk
p2040
aatRp2041
ag2
((lp2042
(lp2043
Vrevid
p2044
aI284457001
aa(lp2045
Vparentid
p2046
aI284373354
aa(lp2047
Vminor
p2048
aV
aa(lp2049
Vuser
p2050
aVEluchil404
p2051
aa(lp2052
Vtimestamp
p2053
ag13
((I2009
I4
I17
I17
I23
I0
I4
I107
I-1
t(dtRp2054
aa(lp2055
Vcomment
p2056
aV/* General principles */
p2057
aatRp2058
ag2
((lp2059
(lp2060
Vrevid
p2061
aI284373354
aa(lp2062
Vparentid
p2063
aI284334778
aa(lp2064
Vuser
p2065
aVKuwabaratheman
p2066
aa(lp2067
Vtimestamp
p2068
ag13
((I2009
I4
I17
I7
I29
I31
I4
I107
I-1
t(dtRp2069
aa(lp2070
Vcomment
p2071
aV/* General principles */
p2072
aatRp2073
ag2
((lp2074
(lp2075
Vrevid
p2076
aI284334778
aa(lp2077
Vparentid
p2078
aI284330860
aa(lp2079
Vuser
p2080
aVAnmaFinotera
p2081
aa(lp2082
Vtimestamp
p2083
ag13
((I2009
I4
I17
I1
I51
I42
I4
I107
I-1
t(dtRp2084
aa(lp2085
Vcomment
p2086
aV[[WP:UNDO|Undid]] revision 284330860 by [[Special:Contributions/Piotrus|Piotrus]] ([[User talk:Piotrus|talk]]) that wasn't said; could be box office hit anywhere, presumably
p2087
aatRp2088
ag2
((lp2089
(lp2090
Vrevid
p2091
aI284330860
aa(lp2092
Vparentid
p2093
aI284329067
aa(lp2094
Vuser
p2095
aVPiotrus
p2096
aa(lp2097
Vtimestamp
p2098
ag13
((I2009
I4
I17
I1
I26
I57
I4
I107
I-1
t(dtRp2099
aa(lp2100
Vcomment
p2101
aV/* General principles */ clarify?
p2102
aatRp2103
ag2
((lp2104
(lp2105
Vrevid
p2106
aI284329067
aa(lp2107
Vparentid
p2108
aI276565763
aa(lp2109
Vuser
p2110
aVAnmaFinotera
p2111
aa(lp2112
Vtimestamp
p2113
ag13
((I2009
I4
I17
I1
I16
I10
I4
I107
I-1
t(dtRp2114
aa(lp2115
Vcomment
p2116
aV/* General principles */ adding that film is within the top 10 of box office sales per consenuss at [[Wikipedia talk:Notability (films)#Box office ranking]] and [[Wikipedia:Articles for deletion/Bleach: Fade to Black, I Call Your Name]]
p2117
aatRp2118
ag2
((lp2119
(lp2120
Vrevid
p2121
aI276565763
aa(lp2122
Vparentid
p2123
aI267453920
aa(lp2124
Vminor
p2125
aV
aa(lp2126
Vuser
p2127
aVObersachsebot
p2128
aa(lp2129
Vtimestamp
p2130
ag13
((I2009
I3
I11
I18
I45
I33
I2
I70
I-1
t(dtRp2131
aa(lp2132
Vcomment
p2133
aVrobot  Modifying: [[uk:\u0412\u0456\u043a\u0456\u043f\u0435\u0434\u0456\u044f:\u041a\u0440\u0438\u0442\u0435\u0440\u0456\u0457 \u0437\u043d\u0430\u0447\u0438\u043c\u043e\u0441\u0442\u0456/\u0424\u0456\u043b\u044c\u043c\u0438]]
p2134
aatRp2135
ag2
((lp2136
(lp2137
Vrevid
p2138
aI267453920
aa(lp2139
Vparentid
p2140
aI266435209
aa(lp2141
Vuser
p2142
aVSeraphim
p2143
aa(lp2144
Vtimestamp
p2145
ag13
((I2009
I1
I30
I19
I5
I0
I4
I30
I-1
t(dtRp2146
aa(lp2147
Vcomment
p2148
aVCorrection - there's no such thing as as notability policy
p2149
aatRp2150
ag2
((lp2151
(lp2152
Vrevid
p2153
aI266435209
aa(lp2154
Vparentid
p2155
aI266435150
aa(lp2156
Vminor
p2157
aV
aa(lp2158
Vuser
p2159
aVAnmaFinotera
p2160
aa(lp2161
Vtimestamp
p2162
ag13
((I2009
I1
I26
I1
I43
I29
I0
I26
I-1
t(dtRp2163
aa(lp2164
Vcomment
p2165
aVReverted 1 edit by [[Special:Contributions/Themoonunderwater|Themoonunderwater]] identified as [[WP:VAND|vandalism]] to last revision by [[User:Roaring Siren|Roaring Siren]]. using [[WP:TWINKLE|TW]]
p2166
aatRp2167
ag2
((lp2168
(lp2169
Vrevid
p2170
aI266435150
aa(lp2171
Vparentid
p2172
aI266289761
aa(lp2173
Vuser
p2174
aVThemoonunderwater
p2175
aa(lp2176
Vtimestamp
p2177
ag13
((I2009
I1
I26
I1
I43
I8
I0
I26
I-1
t(dtRp2178
aa(lp2179
Vcomment
p2180
aV[[WP:AES|\u2190]]Replaced content with 'yiit born 1975'
p2181
aatRp2182
ag2
((lp2183
(lp2184
Vrevid
p2185
aI266289761
aa(lp2186
Vparentid
p2187
aI265676342
aa(lp2188
Vminor
p2189
aV
aa(lp2190
Vuser
p2191
aVRoaring Siren
p2192
aa(lp2193
Vtimestamp
p2194
ag13
((I2009
I1
I25
I10
I38
I38
I6
I25
I-1
t(dtRp2195
aa(lp2196
Vcomment
p2197
aV/* General principles */ highlighting
p2198
aatRp2199
ag2
((lp2200
(lp2201
Vrevid
p2202
aI265676342
aa(lp2203
Vparentid
p2204
aI265023545
aa(lp2205
Vuser
p2206
aVCactusWriter
p2207
aa(lp2208
Vtimestamp
p2209
ag13
((I2009
I1
I22
I10
I39
I14
I3
I22
I-1
t(dtRp2210
aa(lp2211
Vcomment
p2212
aV/* Resources */ add link
p2213
aatRp2214
ag2
((lp2215
(lp2216
Vrevid
p2217
aI265023545
aa(lp2218
Vparentid
p2219
aI264448857
aa(lp2220
Vuser
p2221
aVEluchil404
p2222
aa(lp2223
Vtimestamp
p2224
ag13
((I2009
I1
I19
I5
I25
I50
I0
I19
I-1
t(dtRp2225
aa(lp2226
Vcomment
p2227
aVRemove section see talk
p2228
aatRp2229
ag2
((lp2230
(lp2231
Vrevid
p2232
aI264448857
aa(lp2233
Vparentid
p2234
aI263304673
aa(lp2235
Vuser
p2236
aVQuintinense
p2237
aa(lp2238
Vtimestamp
p2239
ag13
((I2009
I1
I16
I12
I9
I47
I4
I16
I-1
t(dtRp2240
aa(lp2241
Vcomment
p2242
aV
aatRp2243
ag2
((lp2244
(lp2245
Vrevid
p2246
aI263304673
aa(lp2247
Vparentid
p2248
aI263303095
aa(lp2249
Vuser
p2250
aVErik
p2251
aa(lp2252
Vtimestamp
p2253
ag13
((I2009
I1
I11
I3
I17
I53
I6
I11
I-1
t(dtRp2254
aa(lp2255
Vcomment
p2256
aVRevert vandalism
p2257
aatRp2258
ag2
((lp2259
(lp2260
Vrevid
p2261
aI263303095
aa(lp2262
Vparentid
p2263
aI258397134
aa(lp2264
Vuser
p2265
aVFlashbackfamexx
p2266
aa(lp2267
Vtimestamp
p2268
ag13
((I2009
I1
I11
I3
I7
I50
I6
I11
I-1
t(dtRp2269
aa(lp2270
Vcomment
p2271
aV/* General principles */
p2272
aatRp2273
ag2
((lp2274
(lp2275
Vrevid
p2276
aI258397134
aa(lp2277
Vparentid
p2278
aI258396677
aa(lp2279
Vminor
p2280
aV
aa(lp2281
Vuser
p2282
aVSteve
p2283
aa(lp2284
Vtimestamp
p2285
ag13
((I2008
I12
I16
I18
I17
I32
I1
I351
I-1
t(dtRp2286
aa(lp2287
Vcomment
p2288
aVReverted 3 edits by [[Special:Contributions/Lilsouljaondeck|Lilsouljaondeck]] identified as [[WP:VAND|vandalism]] to last revision by [[User:Erik|Erik]].
p2289
aatRp2290
ag2
((lp2291
(lp2292
Vrevid
p2293
aI258396677
aa(lp2294
Vparentid
p2295
aI258396555
aa(lp2296
Vuser
p2297
aVLilsouljaondeck
p2298
aa(lp2299
Vtimestamp
p2300
ag13
((I2008
I12
I16
I18
I15
I13
I1
I351
I-1
t(dtRp2301
aa(lp2302
Vcomment
p2303
aV/* Relevant debates */
p2304
aatRp2305
ag2
((lp2306
(lp2307
Vrevid
p2308
aI258396555
aa(lp2309
Vparentid
p2310
aI258395183
aa(lp2311
Vuser
p2312
aVLilsouljaondeck
p2313
aa(lp2314
Vtimestamp
p2315
ag13
((I2008
I12
I16
I18
I14
I39
I1
I351
I-1
t(dtRp2316
aa(lp2317
Vcomment
p2318
aV/* Notes */
p2319
aatRp2320
ag2
((lp2321
(lp2322
Vrevid
p2323
aI258395183
aa(lp2324
Vparentid
p2325
aI251839722
aa(lp2326
Vuser
p2327
aVLilsouljaondeck
p2328
aa(lp2329
Vtimestamp
p2330
ag13
((I2008
I12
I16
I18
I7
I47
I1
I351
I-1
t(dtRp2331
aa(lp2332
Vcomment
p2333
aV/* General principles */
p2334
aatRp2335
ag2
((lp2336
(lp2337
Vrevid
p2338
aI251839722
aa(lp2339
Vparentid
p2340
aI251839681
aa(lp2341
Vuser
p2342
aVErik
p2343
aa(lp2344
Vtimestamp
p2345
ag13
((I2008
I11
I14
I21
I4
I38
I4
I319
I-1
t(dtRp2346
aa(lp2347
Vcomment
p2348
aVRemoved inappropriate content
p2349
aatRp2350
ag2
((lp2351
(lp2352
Vrevid
p2353
aI251839681
aa(lp2354
Vparentid
p2355
aI251839434
aa(lp2356
Vuser
p2357
aVJohnWhittle1989
p2358
aa(lp2359
Vtimestamp
p2360
ag13
((I2008
I11
I14
I21
I4
I23
I4
I319
I-1
t(dtRp2361
aa(lp2362
Vcomment
p2363
aV/* Contemporary films vs. older films */
p2364
aatRp2365
ag2
((lp2366
(lp2367
Vrevid
p2368
aI251839434
aa(lp2369
Vparentid
p2370
aI251839231
aa(lp2371
Vuser
p2372
aVJohnWhittle1989
p2373
aa(lp2374
Vtimestamp
p2375
ag13
((I2008
I11
I14
I21
I3
I2
I4
I319
I-1
t(dtRp2376
aa(lp2377
Vcomment
p2378
aV/* Future films, incomplete films, and undistributed films */
p2379
aatRp2380
ag2
((lp2381
(lp2382
Vrevid
p2383
aI251839231
aa(lp2384
Vparentid
p2385
aI251839042
aa(lp2386
Vuser
p2387
aVErik
p2388
aa(lp2389
Vtimestamp
p2390
ag13
((I2008
I11
I14
I21
I1
I51
I4
I319
I-1
t(dtRp2391
aa(lp2392
Vcomment
p2393
aVNot the place for this
p2394
aatRp2395
ag2
((lp2396
(lp2397
Vrevid
p2398
aI251839042
aa(lp2399
Vparentid
p2400
aI246366496
aa(lp2401
Vuser
p2402
aVJohnWhittle1989
p2403
aa(lp2404
Vtimestamp
p2405
ag13
((I2008
I11
I14
I21
I0
I44
I4
I319
I-1
t(dtRp2406
aa(lp2407
Vcomment
p2408
aV/* Contemporary films vs. older films */
p2409
aatRp2410
ag2
((lp2411
(lp2412
Vrevid
p2413
aI246366496
aa(lp2414
Vparentid
p2415
aI246363428
aa(lp2416
Vuser
p2417
aVGirolamo Savonarola
p2418
aa(lp2419
Vtimestamp
p2420
ag13
((I2008
I10
I19
I21
I30
I26
I6
I293
I-1
t(dtRp2421
aa(lp2422
Vcomment
p2423
aVrv
p2424
aatRp2425
ag2
((lp2426
(lp2427
Vrevid
p2428
aI246363428
aa(lp2429
Vparentid
p2430
aI241270272
aa(lp2431
Vuser
p2432
aV24.16.232.231
p2433
aa(lp2434
Vanon
p2435
aV
aa(lp2436
Vtimestamp
p2437
ag13
((I2008
I10
I19
I21
I14
I35
I6
I293
I-1
t(dtRp2438
aa(lp2439
Vcomment
p2440
aV/* Relevant debates */
p2441
aatRp2442
ag2
((lp2443
(lp2444
Vrevid
p2445
aI241270272
aa(lp2446
Vparentid
p2447
aI238041680
aa(lp2448
Vminor
p2449
aV
aa(lp2450
Vuser
p2451
aVBehaafarid
p2452
aa(lp2453
Vtimestamp
p2454
ag13
((I2008
I9
I27
I4
I54
I37
I5
I271
I-1
t(dtRp2455
aa(lp2456
Vcomment
p2457
aV+fa:interwiki
p2458
aatRp2459
ag2
((lp2460
(lp2461
Vrevid
p2462
aI238041680
aa(lp2463
Vparentid
p2464
aI237623333
aa(lp2465
Vuser
p2466
aVEluchil404
p2467
aa(lp2468
Vtimestamp
p2469
ag13
((I2008
I9
I12
I23
I54
I50
I4
I256
I-1
t(dtRp2470
aa(lp2471
Vcomment
p2472
aV/* Relevant debates */  update link
p2473
aatRp2474
ag2
((lp2475
(lp2476
Vrevid
p2477
aI237623333
aa(lp2478
Vparentid
p2479
aI237623181
aa(lp2480
Vminor
p2481
aV
aa(lp2482
Vuser
p2483
aVSlakr
p2484
aa(lp2485
Vtimestamp
p2486
ag13
((I2008
I9
I11
I1
I33
I12
I3
I255
I-1
t(dtRp2487
aa(lp2488
Vcomment
p2489
aVReverted edits by [[Special:Contributions/HappyInDeath|HappyInDeath]] ([[User talk:HappyInDeath|talk]]) to last version by Steve
p2490
aatRp2491
ag2
((lp2492
(lp2493
Vrevid
p2494
aI237623181
aa(lp2495
Vparentid
p2496
aI223312182
aa(lp2497
Vuser
p2498
aVHappyInDeath
p2499
aa(lp2500
Vtimestamp
p2501
ag13
((I2008
I9
I11
I1
I32
I22
I3
I255
I-1
t(dtRp2502
aa(lp2503
Vcomment
p2504
aV
aatRp2505
ag2
((lp2506
(lp2507
Vrevid
p2508
aI223312182
aa(lp2509
Vparentid
p2510
aI216585961
aa(lp2511
Vuser
p2512
aVSteve
p2513
aa(lp2514
Vtimestamp
p2515
ag13
((I2008
I7
I3
I14
I45
I24
I3
I185
I-1
t(dtRp2516
aa(lp2517
Vcomment
p2518
aV/* Future films, incomplete films, and undistributed films */ adding brief rationale; revert if anyone has issues with this
p2519
aatRp2520
ag2
((lp2521
(lp2522
Vrevid
p2523
aI216585961
aa(lp2524
Vparentid
p2525
aI215464797
aa(lp2526
Vminor
p2527
aV
aa(lp2528
Vuser
p2529
aVLove Krittaya
p2530
aa(lp2531
Vtimestamp
p2532
ag13
((I2008
I6
I2
I9
I6
I45
I0
I154
I-1
t(dtRp2533
aa(lp2534
Vcomment
p2535
aV
aatRp2536
ag2
((lp2537
(lp2538
Vrevid
p2539
aI215464797
aa(lp2540
Vparentid
p2541
aI214898756
aa(lp2542
Vuser
p2543
aVPBS
p2544
aa(lp2545
Vtimestamp
p2546
ag13
((I2008
I5
I28
I9
I30
I43
I2
I149
I-1
t(dtRp2547
aa(lp2548
Vcomment
p2549
aV/* General principles */ [[WP:ATT]] is not policy [[ WP:SOURCES]] is
p2550
aatRp2551
ag2
((lp2552
(lp2553
Vrevid
p2554
aI214898756
aa(lp2555
Vparentid
p2556
aI212261797
aa(lp2557
Vuser
p2558
aV72.75.78.69
p2559
aa(lp2560
Vanon
p2561
aV
aa(lp2562
Vtimestamp
p2563
ag13
((I2008
I5
I25
I20
I22
I40
I6
I146
I-1
t(dtRp2564
aa(lp2565
Vcomment
p2566
aV/* General principles */ wikilink for [[Internet Movie Database]] to replace [[WP:EL|external link]]
p2567
aatRp2568
ag2
((lp2569
(lp2570
Vrevid
p2571
aI212261797
aa(lp2572
Vparentid
p2573
aI212233552
aa(lp2574
Vuser
p2575
aVUnitedStatesian
p2576
aa(lp2577
Vtimestamp
p2578
ag13
((I2008
I5
I14
I2
I13
I35
I2
I135
I-1
t(dtRp2579
aa(lp2580
Vcomment
p2581
aVrm link to depricated [[WP:ATT]]
p2582
aatRp2583
ag2
((lp2584
(lp2585
Vrevid
p2586
aI212233552
aa(lp2587
Vparentid
p2588
aI212233104
aa(lp2589
Vminor
p2590
aV
aa(lp2591
Vuser
p2592
aVBigtimepeace
p2593
aa(lp2594
Vtimestamp
p2595
ag13
((I2008
I5
I13
I23
I40
I43
I1
I134
I-1
t(dtRp2596
aa(lp2597
Vcomment
p2598
aVReverted 2 edits by [[Special:Contributions/70.54.21.174|70.54.21.174]] identified as [[WP:VAND|vandalism]] to last revision by [[User:Gimmetrow|Gimmetrow]]. using [[WP:TWINKLE|TW]]
p2599
aatRp2600
ag2
((lp2601
(lp2602
Vrevid
p2603
aI212233104
aa(lp2604
Vparentid
p2605
aI212232909
aa(lp2606
Vuser
p2607
aV70.54.21.174
p2608
aa(lp2609
Vanon
p2610
aV
aa(lp2611
Vtimestamp
p2612
ag13
((I2008
I5
I13
I23
I38
I28
I1
I134
I-1
t(dtRp2613
aa(lp2614
Vcomment
p2615
aV
aatRp2616
ag2
((lp2617
(lp2618
Vrevid
p2619
aI212232909
aa(lp2620
Vparentid
p2621
aI206619485
aa(lp2622
Vuser
p2623
aV70.54.21.174
p2624
aa(lp2625
Vanon
p2626
aV
aa(lp2627
Vtimestamp
p2628
ag13
((I2008
I5
I13
I23
I37
I23
I1
I134
I-1
t(dtRp2629
aa(lp2630
Vcomment
p2631
aV
aatRp2632
ag2
((lp2633
(lp2634
Vrevid
p2635
aI206619485
aa(lp2636
Vparentid
p2637
aI206447345
aa(lp2638
Vminor
p2639
aV
aa(lp2640
Vuser
p2641
aVGimmetrow
p2642
aa(lp2643
Vtimestamp
p2644
ag13
((I2008
I4
I19
I2
I39
I54
I5
I110
I-1
t(dtRp2645
aa(lp2646
Vcomment
p2647
aV[[CAT:SHORTFIX]]
p2648
aatRp2649
ag2
((lp2650
(lp2651
Vrevid
p2652
aI206447345
aa(lp2653
Vparentid
p2654
aI194957975
aa(lp2655
Vminor
p2656
aV
aa(lp2657
Vuser
p2658
aVGimmeBot
p2659
aa(lp2660
Vtimestamp
p2661
ag13
((I2008
I4
I18
I7
I58
I41
I4
I109
I-1
t(dtRp2662
aa(lp2663
Vcomment
p2664
aV[[CAT:SHORTFIX]]
p2665
aatRp2666
ag2
((lp2667
(lp2668
Vrevid
p2669
aI194957975
aa(lp2670
Vparentid
p2671
aI191779359
aa(lp2672
Vminor
p2673
aV
aa(lp2674
Vuser
p2675
aVGirolamo Savonarola
p2676
aa(lp2677
Vtimestamp
p2678
ag13
((I2008
I2
I29
I19
I45
I59
I4
I60
I-1
t(dtRp2679
aa(lp2680
Vcomment
p2681
aV/* Future films, incomplete films, and undistributed films */
p2682
aatRp2683
ag2
((lp2684
(lp2685
Vrevid
p2686
aI191779359
aa(lp2687
Vparentid
p2688
aI191779117
aa(lp2689
Vuser
p2690
aVUnitedStatesian
p2691
aa(lp2692
Vtimestamp
p2693
ag13
((I2008
I2
I16
I2
I56
I3
I5
I47
I-1
t(dtRp2694
aa(lp2695
Vcomment
p2696
aVfixed more WLs
p2697
aatRp2698
ag2
((lp2699
(lp2700
Vrevid
p2701
aI191779117
aa(lp2702
Vparentid
p2703
aI190013158
aa(lp2704
Vuser
p2705
aVUnitedStatesian
p2706
aa(lp2707
Vtimestamp
p2708
ag13
((I2008
I2
I16
I2
I54
I7
I5
I47
I-1
t(dtRp2709
aa(lp2710
Vcomment
p2711
aVfixed links
p2712
aatRp2713
ag2
((lp2714
(lp2715
Vrevid
p2716
aI190013158
aa(lp2717
Vparentid
p2718
aI183457524
aa(lp2719
Vuser
p2720
aVComicist
p2721
aa(lp2722
Vtimestamp
p2723
ag13
((I2008
I2
I8
I19
I7
I2
I4
I39
I-1
t(dtRp2724
aa(lp2725
Vcomment
p2726
aV/* General Principles */ shouldn't be capped
p2727
aatRp2728
ag2
((lp2729
(lp2730
Vrevid
p2731
aI183457524
aa(lp2732
Vparentid
p2733
aI182172223
aa(lp2734
Vuser
p2735
aVErik
p2736
aa(lp2737
Vtimestamp
p2738
ag13
((I2008
I1
I10
I19
I27
I25
I3
I10
I-1
t(dtRp2739
aa(lp2740
Vcomment
p2741
aV/* Future films, incomplete films, and undistributed films */ Wiki-link to [[WP:FUTFILM]] b/c of process that addresses notability/structure of such articles; revert & discuss if this is an issue
p2742
aatRp2743
ag2
((lp2744
(lp2745
Vrevid
p2746
aI182172223
aa(lp2747
Vparentid
p2748
aI177262554
aa(lp2749
Vminor
p2750
aV
aa(lp2751
Vuser
p2752
aVVesal
p2753
aa(lp2754
Vtimestamp
p2755
ag13
((I2008
I1
I4
I20
I52
I23
I4
I4
I-1
t(dtRp2756
aa(lp2757
Vcomment
p2758
aV/* General Principles */ punct
p2759
aatRp2760
ag2
((lp2761
(lp2762
Vrevid
p2763
aI177262554
aa(lp2764
Vparentid
p2765
aI171036287
aa(lp2766
Vuser
p2767
aVErik
p2768
aa(lp2769
Vtimestamp
p2770
ag13
((I2007
I12
I11
I18
I59
I31
I1
I345
I-1
t(dtRp2771
aa(lp2772
Vcomment
p2773
aV/* Future films, incomplete films, and undistributed films */ Shortcut
p2774
aatRp2775
ag2
((lp2776
(lp2777
Vrevid
p2778
aI171036287
aa(lp2779
Vparentid
p2780
aI166744492
aa(lp2781
Vminor
p2782
aV
aa(lp2783
Vuser
p2784
aVYLSS
p2785
aa(lp2786
Vtimestamp
p2787
ag13
((I2007
I11
I12
I20
I50
I37
I0
I316
I-1
t(dtRp2788
aa(lp2789
Vcomment
p2790
aV/* Intro */ hatnote
p2791
aatRp2792
ag2
((lp2793
(lp2794
Vrevid
p2795
aI166744492
aa(lp2796
Vparentid
p2797
aI166744300
aa(lp2798
Vuser
p2799
aVBignole
p2800
aa(lp2801
Vtimestamp
p2802
ag13
((I2007
I10
I24
I13
I54
I47
I2
I297
I-1
t(dtRp2803
aa(lp2804
Vcomment
p2805
aVfixing link, Attribution isn't used any longer
p2806
aatRp2807
ag2
((lp2808
(lp2809
Vrevid
p2810
aI166744300
aa(lp2811
Vparentid
p2812
aI166735659
aa(lp2813
Vuser
p2814
aVBignole
p2815
aa(lp2816
Vtimestamp
p2817
ag13
((I2007
I10
I24
I13
I53
I34
I2
I297
I-1
t(dtRp2818
aa(lp2819
Vcomment
p2820
aV[[WP:UNDO|Undid]] revision 166735659 by [[Special:Contributions/Pixelface|Pixelface]] ([[User talk:Pixelface|talk]]) then correct the links, Attribution was a combo of WP:V and RS
p2821
aatRp2822
ag2
((lp2823
(lp2824
Vrevid
p2825
aI166735659
aa(lp2826
Vparentid
p2827
aI162245917
aa(lp2828
Vuser
p2829
aVPixelface
p2830
aa(lp2831
Vtimestamp
p2832
ag13
((I2007
I10
I24
I12
I59
I23
I2
I297
I-1
t(dtRp2833
aa(lp2834
Vcomment
p2835
aVremoved 'Claims of notability must adhere to Wikipedia's policy on attribution'. there is no more policy on [[WP:A|attribution]]
p2836
aatRp2837
ag2
((lp2838
(lp2839
Vrevid
p2840
aI162245917
aa(lp2841
Vparentid
p2842
aI162236607
aa(lp2843
Vuser
p2844
aVGirolamo Savonarola
p2845
aa(lp2846
Vtimestamp
p2847
ag13
((I2007
I10
I4
I14
I24
I51
I3
I277
I-1
t(dtRp2848
aa(lp2849
Vcomment
p2850
aVdel merge; consensus is against it, and its a bit too specific for WP:N
p2851
aatRp2852
ag2
((lp2853
(lp2854
Vrevid
p2855
aI162236607
aa(lp2856
Vparentid
p2857
aI158424122
aa(lp2858
Vminor
p2859
aV
aa(lp2860
Vuser
p2861
aVAlientraveller
p2862
aa(lp2863
Vtimestamp
p2864
ag13
((I2007
I10
I4
I13
I34
I21
I3
I277
I-1
t(dtRp2865
aa(lp2866
Vcomment
p2867
aV
aatRp2868
ag2
((lp2869
(lp2870
Vrevid
p2871
aI158424122
aa(lp2872
Vparentid
p2873
aI157763002
aa(lp2874
Vuser
p2875
aVYou Can't See Me!
p2876
aa(lp2877
Vtimestamp
p2878
ag13
((I2007
I9
I17
I4
I3
I12
I0
I260
I-1
t(dtRp2879
aa(lp2880
Vcomment
p2881
aVWould you mind if I added this?
p2882
aatRp2883
ag2
((lp2884
(lp2885
Vrevid
p2886
aI157763002
aa(lp2887
Vparentid
p2888
aI157508615
aa(lp2889
Vuser
p2890
aVMetropolitan90
p2891
aa(lp2892
Vtimestamp
p2893
ag13
((I2007
I9
I14
I2
I21
I31
I4
I257
I-1
t(dtRp2894
aa(lp2895
Vcomment
p2896
aV/* General Principles */ see talk page
p2897
aatRp2898
ag2
((lp2899
(lp2900
Vrevid
p2901
aI157508615
aa(lp2902
Vparentid
p2903
aI157506624
aa(lp2904
Vuser
p2905
aVKevin Murray
p2906
aa(lp2907
Vtimestamp
p2908
ag13
((I2007
I9
I13
I0
I57
I29
I3
I256
I-1
t(dtRp2909
aa(lp2910
Vcomment
p2911
aVreplaced tag which is meant to stimulate discussion
p2912
aatRp2913
ag2
((lp2914
(lp2915
Vrevid
p2916
aI157506624
aa(lp2917
Vparentid
p2918
aI157503104
aa(lp2919
Vuser
p2920
aVErachima
p2921
aa(lp2922
Vtimestamp
p2923
ag13
((I2007
I9
I13
I0
I46
I20
I3
I256
I-1
t(dtRp2924
aa(lp2925
Vcomment
p2926
aVthere's no consensus for the merge suggestion on [[WT:N]]
p2927
aatRp2928
ag2
((lp2929
(lp2930
Vrevid
p2931
aI157503104
aa(lp2932
Vparentid
p2933
aI153136912
aa(lp2934
Vuser
p2935
aVKevin Murray
p2936
aa(lp2937
Vtimestamp
p2938
ag13
((I2007
I9
I13
I0
I26
I48
I3
I256
I-1
t(dtRp2939
aa(lp2940
Vcomment
p2941
aVadd merge tag
p2942
aatRp2943
ag2
((lp2944
(lp2945
Vrevid
p2946
aI153136912
aa(lp2947
Vparentid
p2948
aI153135791
aa(lp2949
Vuser
p2950
aVCinematical
p2951
aa(lp2952
Vtimestamp
p2953
ag13
((I2007
I8
I23
I12
I4
I58
I3
I235
I-1
t(dtRp2954
aa(lp2955
Vcomment
p2956
aV/* Resources */
p2957
aatRp2958
ag2
((lp2959
(lp2960
Vrevid
p2961
aI153135791
aa(lp2962
Vparentid
p2963
aI150857497
aa(lp2964
Vuser
p2965
aVCinematical
p2966
aa(lp2967
Vtimestamp
p2968
ag13
((I2007
I8
I23
I11
I55
I59
I3
I235
I-1
t(dtRp2969
aa(lp2970
Vcomment
p2971
aV/* Contemporary films vs. older films */
p2972
aatRp2973
ag2
((lp2974
(lp2975
Vrevid
p2976
aI150857497
aa(lp2977
Vparentid
p2978
aI146800626
aa(lp2979
Vuser
p2980
aVSatori Son
p2981
aa(lp2982
Vtimestamp
p2983
ag13
((I2007
I8
I13
I0
I4
I27
I0
I225
I-1
t(dtRp2984
aa(lp2985
Vcomment
p2986
aV/* Relevant debates */  add user archive link
p2987
aatRp2988
ag2
((lp2989
(lp2990
Vrevid
p2991
aI146800626
aa(lp2992
Vparentid
p2993
aI146799642
aa(lp2994
Vuser
p2995
aVKevin Murray
p2996
aa(lp2997
Vtimestamp
p2998
ag13
((I2007
I7
I24
I17
I28
I8
I1
I205
I-1
t(dtRp2999
aa(lp3000
Vcomment
p3001
aV/* Future films, incomplete films, and undistributed films */ fine tune
p3002
aatRp3003
ag2
((lp3004
(lp3005
Vrevid
p3006
aI146799642
aa(lp3007
Vparentid
p3008
aI146799416
aa(lp3009
Vuser
p3010
aVKevin Murray
p3011
aa(lp3012
Vtimestamp
p3013
ag13
((I2007
I7
I24
I17
I23
I11
I1
I205
I-1
t(dtRp3014
aa(lp3015
Vcomment
p3016
aV/* Future films, incomplete films, and undistributed films */ fix typos
p3017
aatRp3018
ag2
((lp3019
(lp3020
Vrevid
p3021
aI146799416
aa(lp3022
Vparentid
p3023
aI146797373
aa(lp3024
Vuser
p3025
aVKevin Murray
p3026
aa(lp3027
Vtimestamp
p3028
ag13
((I2007
I7
I24
I17
I22
I3
I1
I205
I-1
t(dtRp3029
aa(lp3030
Vcomment
p3031
aV/* Future films, incomplete films, and undistributed films */ condensed the thought
p3032
aatRp3033
ag2
((lp3034
(lp3035
Vrevid
p3036
aI146797373
aa(lp3037
Vparentid
p3038
aI146688180
aa(lp3039
Vuser
p3040
aVKevin Murray
p3041
aa(lp3042
Vtimestamp
p3043
ag13
((I2007
I7
I24
I17
I11
I36
I1
I205
I-1
t(dtRp3044
aa(lp3045
Vcomment
p3046
aV/* Future films, incomplete films, and undistributed films */ removed justification and example.  If the guideline is clearly written examples are not needed.  Our consensus will be the justification!
p3047
aatRp3048
ag2
((lp3049
(lp3050
Vrevid
p3051
aI146688180
aa(lp3052
Vparentid
p3053
aI146662403
aa(lp3054
Vuser
p3055
aVKevin Murray
p3056
aa(lp3057
Vtimestamp
p3058
ag13
((I2007
I7
I24
I4
I1
I30
I1
I205
I-1
t(dtRp3059
aa(lp3060
Vcomment
p3061
aVSelf revert - please work on getting this much shorter.  Cheers!
p3062
aatRp3063
ag2
((lp3064
(lp3065
Vrevid
p3066
aI146662403
aa(lp3067
Vparentid
p3068
aI146662175
aa(lp3069
Vuser
p3070
aVKevin Murray
p3071
aa(lp3072
Vtimestamp
p3073
ag13
((I2007
I7
I24
I1
I34
I14
I1
I205
I-1
t(dtRp3074
aa(lp3075
Vcomment
p3076
aVThe procedure is be bold but if reverted take it back to talk.  You have no support and are outside of procedures 3RR
p3077
aatRp3078
ag2
((lp3079
(lp3080
Vrevid
p3081
aI146662175
aa(lp3082
Vparentid
p3083
aI146662017
aa(lp3084
Vuser
p3085
aVGirolamo Savonarola
p3086
aa(lp3087
Vtimestamp
p3088
ag13
((I2007
I7
I24
I1
I33
I22
I1
I205
I-1
t(dtRp3089
aa(lp3090
Vcomment
p3091
aVrv - please continue the discussion instead of starting and edit war
p3092
aatRp3093
ag2
((lp3094
(lp3095
Vrevid
p3096
aI146662017
aa(lp3097
Vparentid
p3098
aI146661452
aa(lp3099
Vuser
p3100
aVKevin Murray
p3101
aa(lp3102
Vtimestamp
p3103
ag13
((I2007
I7
I24
I1
I32
I42
I1
I205
I-1
t(dtRp3104
aa(lp3105
Vcomment
p3106
aVThere is no support to justify a change
p3107
aatRp3108
ag2
((lp3109
(lp3110
Vrevid
p3111
aI146661452
aa(lp3112
Vparentid
p3113
aI146661345
aa(lp3114
Vminor
p3115
aV
aa(lp3116
Vuser
p3117
aVGirolamo Savonarola
p3118
aa(lp3119
Vtimestamp
p3120
ag13
((I2007
I7
I24
I1
I30
I45
I1
I205
I-1
t(dtRp3121
aa(lp3122
Vcomment
p3123
aV/* Future films, incomplete films, and undistributed films */
p3124
aatRp3125
ag2
((lp3126
(lp3127
Vrevid
p3128
aI146661345
aa(lp3129
Vparentid
p3130
aI146661162
aa(lp3131
Vuser
p3132
aVGirolamo Savonarola
p3133
aa(lp3134
Vtimestamp
p3135
ag13
((I2007
I7
I24
I1
I30
I25
I1
I205
I-1
t(dtRp3136
aa(lp3137
Vcomment
p3138
aVrv - you were the only objector
p3139
aatRp3140
ag2
((lp3141
(lp3142
Vrevid
p3143
aI146661162
aa(lp3144
Vparentid
p3145
aI146661013
aa(lp3146
Vuser
p3147
aVKevin Murray
p3148
aa(lp3149
Vtimestamp
p3150
ag13
((I2007
I7
I24
I1
I29
I51
I1
I205
I-1
t(dtRp3151
aa(lp3152
Vcomment
p3153
aVThere is no consensus for this change.  It has no support although it's been discussed.  There is no issue not addressed by the simpler text.
p3154
aatRp3155
ag2
((lp3156
(lp3157
Vrevid
p3158
aI146661013
aa(lp3159
Vparentid
p3160
aI146660923
aa(lp3161
Vminor
p3162
aV
aa(lp3163
Vuser
p3164
aVGirolamo Savonarola
p3165
aa(lp3166
Vtimestamp
p3167
ag13
((I2007
I7
I24
I1
I29
I23
I1
I205
I-1
t(dtRp3168
aa(lp3169
Vcomment
p3170
aV/* Future films, incomplete films, and undistributed films */
p3171
aatRp3172
ag2
((lp3173
(lp3174
Vrevid
p3175
aI146660923
aa(lp3176
Vparentid
p3177
aI146660634
aa(lp3178
Vminor
p3179
aV
aa(lp3180
Vuser
p3181
aVGirolamo Savonarola
p3182
aa(lp3183
Vtimestamp
p3184
ag13
((I2007
I7
I24
I1
I29
I6
I1
I205
I-1
t(dtRp3185
aa(lp3186
Vcomment
p3187
aV/* Future films, incomplete films, and undistributed films */
p3188
aatRp3189
ag2
((lp3190
(lp3191
Vrevid
p3192
aI146660634
aa(lp3193
Vparentid
p3194
aI146658807
aa(lp3195
Vuser
p3196
aVGirolamo Savonarola
p3197
aa(lp3198
Vtimestamp
p3199
ag13
((I2007
I7
I24
I1
I28
I14
I1
I205
I-1
t(dtRp3200
aa(lp3201
Vcomment
p3202
aV/* Future films, incomplete films, and undistributed films */ more on why
p3203
aatRp3204
ag2
((lp3205
(lp3206
Vrevid
p3207
aI146658807
aa(lp3208
Vparentid
p3209
aI146658768
aa(lp3210
Vminor
p3211
aV
aa(lp3212
Vuser
p3213
aVGirolamo Savonarola
p3214
aa(lp3215
Vtimestamp
p3216
ag13
((I2007
I7
I24
I1
I21
I40
I1
I205
I-1
t(dtRp3217
aa(lp3218
Vcomment
p3219
aV/* Future films, incomplete films, and undistributed films */
p3220
aatRp3221
ag2
((lp3222
(lp3223
Vrevid
p3224
aI146658768
aa(lp3225
Vparentid
p3226
aI146658622
aa(lp3227
Vminor
p3228
aV
aa(lp3229
Vuser
p3230
aVGirolamo Savonarola
p3231
aa(lp3232
Vtimestamp
p3233
ag13
((I2007
I7
I24
I1
I21
I31
I1
I205
I-1
t(dtRp3234
aa(lp3235
Vcomment
p3236
aV/* Future films, incomplete films, and undistributed films */
p3237
aatRp3238
ag2
((lp3239
(lp3240
Vrevid
p3241
aI146658622
aa(lp3242
Vparentid
p3243
aI146658417
aa(lp3244
Vminor
p3245
aV
aa(lp3246
Vuser
p3247
aVGirolamo Savonarola
p3248
aa(lp3249
Vtimestamp
p3250
ag13
((I2007
I7
I24
I1
I20
I56
I1
I205
I-1
t(dtRp3251
aa(lp3252
Vcomment
p3253
aV/* Future films, incomplete films, and undistributed films */
p3254
aatRp3255
ag2
((lp3256
(lp3257
Vrevid
p3258
aI146658417
aa(lp3259
Vparentid
p3260
aI144424164
aa(lp3261
Vuser
p3262
aVGirolamo Savonarola
p3263
aa(lp3264
Vtimestamp
p3265
ag13
((I2007
I7
I24
I1
I20
I24
I1
I205
I-1
t(dtRp3266
aa(lp3267
Vcomment
p3268
aV/* Future films, incomplete films, and undistributed films */ expanded as per discussion. please keep the conversation flowing if you have objections.
p3269
aatRp3270
ag2
((lp3271
(lp3272
Vrevid
p3273
aI144424164
aa(lp3274
Vparentid
p3275
aI142864931
aa(lp3276
Vuser
p3277
aVHuji
p3278
aa(lp3279
Vtimestamp
p3280
ag13
((I2007
I7
I13
I16
I20
I15
I4
I194
I-1
t(dtRp3281
aa(lp3282
Vcomment
p3283
aVshorcut
p3284
aatRp3285
ag2
((lp3286
(lp3287
Vrevid
p3288
aI142864931
aa(lp3289
Vparentid
p3290
aI142099511
aa(lp3291
Vuser
p3292
aVRefsworldlee
p3293
aa(lp3294
Vtimestamp
p3295
ag13
((I2007
I7
I6
I10
I50
I58
I4
I187
I-1
t(dtRp3296
aa(lp3297
Vcomment
p3298
aVrm whitespaces
p3299
aatRp3300
ag2
((lp3301
(lp3302
Vrevid
p3303
aI142099511
aa(lp3304
Vparentid
p3305
aI140589634
aa(lp3306
Vminor
p3307
aV
aa(lp3308
Vuser
p3309
aVGurch
p3310
aa(lp3311
Vtimestamp
p3312
ag13
((I2007
I7
I2
I21
I44
I12
I0
I183
I-1
t(dtRp3313
aa(lp3314
Vcomment
p3315
aVcat
p3316
aatRp3317
ag2
((lp3318
(lp3319
Vrevid
p3320
aI140589634
aa(lp3321
Vparentid
p3322
aI140589117
aa(lp3323
Vuser
p3324
aVInfophile
p3325
aa(lp3326
Vtimestamp
p3327
ag13
((I2007
I6
I25
I19
I57
I24
I0
I176
I-1
t(dtRp3328
aa(lp3329
Vcomment
p3330
aVAdding IncGuide template
p3331
aatRp3332
ag2
((lp3333
(lp3334
Vrevid
p3335
aI140589117
aa(lp3336
Vparentid
p3337
aI138964417
aa(lp3338
Vminor
p3339
aV
aa(lp3340
Vuser
p3341
aVInfophile
p3342
aa(lp3343
Vtimestamp
p3344
ag13
((I2007
I6
I25
I19
I54
I51
I0
I176
I-1
t(dtRp3345
aa(lp3346
Vcomment
p3347
aV/* Contemporary films vs. older films */ punctuation
p3348
aatRp3349
ag2
((lp3350
(lp3351
Vrevid
p3352
aI138964417
aa(lp3353
Vparentid
p3354
aI137866845
aa(lp3355
Vuser
p3356
aVRadiant!
p3357
aa(lp3358
Vtimestamp
p3359
ag13
((I2007
I6
I18
I12
I34
I14
I0
I169
I-1
t(dtRp3360
aa(lp3361
Vcomment
p3362
aVper talk page, objections appear to be resolved
p3363
aatRp3364
ag2
((lp3365
(lp3366
Vrevid
p3367
aI137866845
aa(lp3368
Vparentid
p3369
aI137866729
aa(lp3370
Vuser
p3371
aVKevin Murray
p3372
aa(lp3373
Vtimestamp
p3374
ag13
((I2007
I6
I13
I10
I9
I26
I2
I164
I-1
t(dtRp3375
aa(lp3376
Vcomment
p3377
aV/* Epilogue */ removed section which is redundant instruction
p3378
aatRp3379
ag2
((lp3380
(lp3381
Vrevid
p3382
aI137866729
aa(lp3383
Vparentid
p3384
aI137866455
aa(lp3385
Vuser
p3386
aVKevin Murray
p3387
aa(lp3388
Vtimestamp
p3389
ag13
((I2007
I6
I13
I10
I8
I31
I2
I164
I-1
t(dtRp3390
aa(lp3391
Vcomment
p3392
aV/* A reflection of existing standards */ remove section which is just narative justifying this guideline - salesmanship
p3393
aatRp3394
ag2
((lp3395
(lp3396
Vrevid
p3397
aI137866455
aa(lp3398
Vparentid
p3399
aI137866010
aa(lp3400
Vuser
p3401
aVKevin Murray
p3402
aa(lp3403
Vtimestamp
p3404
ag13
((I2007
I6
I13
I10
I6
I10
I2
I164
I-1
t(dtRp3405
aa(lp3406
Vcomment
p3407
aV/* Future films, incomplete films, and undistributed films */  TRIM
p3408
aatRp3409
ag2
((lp3410
(lp3411
Vrevid
p3412
aI137866010
aa(lp3413
Vparentid
p3414
aI137828180
aa(lp3415
Vuser
p3416
aVKevin Murray
p3417
aa(lp3418
Vtimestamp
p3419
ag13
((I2007
I6
I13
I10
I2
I11
I2
I164
I-1
t(dtRp3420
aa(lp3421
Vcomment
p3422
aV/* Contemporary films vs. older films  TRIM Contemporary films vs. older films
p3423
aatRp3424
ag2
((lp3425
(lp3426
Vrevid
p3427
aI137828180
aa(lp3428
Vparentid
p3429
aI137798924
aa(lp3430
Vuser
p3431
aVRick Block
p3432
aa(lp3433
Vtimestamp
p3434
ag13
((I2007
I6
I13
I4
I18
I22
I2
I164
I-1
t(dtRp3435
aa(lp3436
Vcomment
p3437
aVtrim the intro
p3438
aatRp3439
ag2
((lp3440
(lp3441
Vrevid
p3442
aI137798924
aa(lp3443
Vparentid
p3444
aI137797029
aa(lp3445
Vuser
p3446
aVRick Block
p3447
aa(lp3448
Vtimestamp
p3449
ag13
((I2007
I6
I13
I1
I5
I57
I2
I164
I-1
t(dtRp3450
aa(lp3451
Vcomment
p3452
aVconsistently use ref, not fn/fnb
p3453
aatRp3454
ag2
((lp3455
(lp3456
Vrevid
p3457
aI137797029
aa(lp3458
Vparentid
p3459
aI137790612
aa(lp3460
Vuser
p3461
aVRick Block
p3462
aa(lp3463
Vtimestamp
p3464
ag13
((I2007
I6
I13
I0
I54
I10
I2
I164
I-1
t(dtRp3465
aa(lp3466
Vcomment
p3467
aVconsistently use [[template:fn]] for notes
p3468
aatRp3469
ag2
((lp3470
(lp3471
Vrevid
p3472
aI137790612
aa(lp3473
Vparentid
p3474
aI137790534
aa(lp3475
Vuser
p3476
aVKevin Murray
p3477
aa(lp3478
Vtimestamp
p3479
ag13
((I2007
I6
I13
I0
I13
I30
I2
I164
I-1
t(dtRp3480
aa(lp3481
Vcomment
p3482
aV/* General Principles */ remove d typo
p3483
aatRp3484
ag2
((lp3485
(lp3486
Vrevid
p3487
aI137790534
aa(lp3488
Vparentid
p3489
aI137757158
aa(lp3490
Vuser
p3491
aVKevin Murray
p3492
aa(lp3493
Vtimestamp
p3494
ag13
((I2007
I6
I13
I0
I13
I2
I2
I164
I-1
t(dtRp3495
aa(lp3496
Vcomment
p3497
aV/* General Principles */ updated the general notability guideline
p3498
aatRp3499
ag2
((lp3500
(lp3501
Vrevid
p3502
aI137757158
aa(lp3503
Vparentid
p3504
aI137756037
aa(lp3505
Vuser
p3506
aVEluchil404
p3507
aa(lp3508
Vtimestamp
p3509
ag13
((I2007
I6
I12
I21
I9
I20
I1
I163
I-1
t(dtRp3510
aa(lp3511
Vcomment
p3512
aV/* A reflection of existing standards */  tighten wording
p3513
aatRp3514
ag2
((lp3515
(lp3516
Vrevid
p3517
aI137756037
aa(lp3518
Vparentid
p3519
aI137755739
aa(lp3520
Vuser
p3521
aVEluchil404
p3522
aa(lp3523
Vtimestamp
p3524
ag13
((I2007
I6
I12
I21
I4
I2
I1
I163
I-1
t(dtRp3525
aa(lp3526
Vcomment
p3527
aV/* Contemporary films vs. older films */  tighten wording
p3528
aatRp3529
ag2
((lp3530
(lp3531
Vrevid
p3532
aI137755739
aa(lp3533
Vparentid
p3534
aI137689318
aa(lp3535
Vuser
p3536
aVEluchil404
p3537
aa(lp3538
Vtimestamp
p3539
ag13
((I2007
I6
I12
I21
I2
I25
I1
I163
I-1
t(dtRp3540
aa(lp3541
Vcomment
p3542
aV/* Guideline */  rename section
p3543
aatRp3544
ag2
((lp3545
(lp3546
Vrevid
p3547
aI137689318
aa(lp3548
Vparentid
p3549
aI137677825
aa(lp3550
Vminor
p3551
aV
aa(lp3552
Vuser
p3553
aVMorton devonshire
p3554
aa(lp3555
Vtimestamp
p3556
ag13
((I2007
I6
I12
I15
I7
I23
I1
I163
I-1
t(dtRp3557
aa(lp3558
Vcomment
p3559
aV/* Other evidence of notability */
p3560
aatRp3561
ag2
((lp3562
(lp3563
Vrevid
p3564
aI137677825
aa(lp3565
Vparentid
p3566
aI137674321
aa(lp3567
Vuser
p3568
aVRick Block
p3569
aa(lp3570
Vtimestamp
p3571
ag13
((I2007
I6
I12
I13
I54
I0
I1
I163
I-1
t(dtRp3572
aa(lp3573
Vcomment
p3574
aV/* Guideline */ add one that covers notable contemporary films
p3575
aatRp3576
ag2
((lp3577
(lp3578
Vrevid
p3579
aI137674321
aa(lp3580
Vparentid
p3581
aI136610126
aa(lp3582
Vminor
p3583
aV
aa(lp3584
Vuser
p3585
aVVisviva
p3586
aa(lp3587
Vtimestamp
p3588
ag13
((I2007
I6
I12
I13
I30
I37
I1
I163
I-1
t(dtRp3589
aa(lp3590
Vcomment
p3591
aV/* Guideline */ cat name.
p3592
aatRp3593
ag2
((lp3594
(lp3595
Vrevid
p3596
aI136610126
aa(lp3597
Vparentid
p3598
aI136609477
aa(lp3599
Vminor
p3600
aV
aa(lp3601
Vuser
p3602
aVGurch
p3603
aa(lp3604
Vtimestamp
p3605
ag13
((I2007
I6
I7
I15
I7
I55
I3
I158
I-1
t(dtRp3606
aa(lp3607
Vcomment
p3608
aVfix
p3609
aatRp3610
ag2
((lp3611
(lp3612
Vrevid
p3613
aI136609477
aa(lp3614
Vparentid
p3615
aI127324224
aa(lp3616
Vuser
p3617
aV91.124.191.224
p3618
aa(lp3619
Vanon
p3620
aV
aa(lp3621
Vtimestamp
p3622
ag13
((I2007
I6
I7
I15
I4
I23
I3
I158
I-1
t(dtRp3623
aa(lp3624
Vcomment
p3625
aV/* Relevant debates */
p3626
aatRp3627
ag2
((lp3628
(lp3629
Vrevid
p3630
aI127324224
aa(lp3631
Vparentid
p3632
aI125074182
aa(lp3633
Vuser
p3634
aVUnitedStatesian
p3635
aa(lp3636
Vtimestamp
p3637
ag13
((I2007
I5
I1
I2
I34
I25
I1
I121
I-1
t(dtRp3638
aa(lp3639
Vcomment
p3640
aVupdated to match revisions at [[WP:N]]
p3641
aatRp3642
ag2
((lp3643
(lp3644
Vrevid
p3645
aI125074182
aa(lp3646
Vparentid
p3647
aI125068314
aa(lp3648
Vuser
p3649
aVDragonfiend
p3650
aa(lp3651
Vtimestamp
p3652
ag13
((I2007
I4
I23
I5
I2
I47
I0
I113
I-1
t(dtRp3653
aa(lp3654
Vcomment
p3655
aV/* Criteria */ replacement text for template
p3656
aatRp3657
ag2
((lp3658
(lp3659
Vrevid
p3660
aI125068314
aa(lp3661
Vparentid
p3662
aI120697827
aa(lp3663
Vuser
p3664
aVFreakofnurture
p3665
aa(lp3666
Vtimestamp
p3667
ag13
((I2007
I4
I23
I4
I34
I27
I0
I113
I-1
t(dtRp3668
aa(lp3669
Vcomment
p3670
aV
aatRp3671
ag2
((lp3672
(lp3673
Vrevid
p3674
aI120697827
aa(lp3675
Vparentid
p3676
aI120697796
aa(lp3677
Vuser
p3678
aVJzG
p3679
aa(lp3680
Vtimestamp
p3681
ag13
((I2007
I4
I6
I9
I55
I49
I4
I96
I-1
t(dtRp3682
aa(lp3683
Vcomment
p3684
aV/* Criteria */ tidy
p3685
aatRp3686
ag2
((lp3687
(lp3688
Vrevid
p3689
aI120697796
aa(lp3690
Vparentid
p3691
aI120226842
aa(lp3692
Vuser
p3693
aVJzG
p3694
aa(lp3695
Vtimestamp
p3696
ag13
((I2007
I4
I6
I9
I55
I30
I4
I96
I-1
t(dtRp3697
aa(lp3698
Vcomment
p3699
aV/* Criteria */ tidy, reference PNC
p3700
aatRp3701
ag2
((lp3702
(lp3703
Vrevid
p3704
aI120226842
aa(lp3705
Vparentid
p3706
aI120102122
aa(lp3707
Vuser
p3708
aVKevin Murray
p3709
aa(lp3710
Vtimestamp
p3711
ag13
((I2007
I4
I4
I13
I36
I18
I2
I94
I-1
t(dtRp3712
aa(lp3713
Vcomment
p3714
aVHas not received consensus for proposal, but agree to remove rejected while discussion continues
p3715
aatRp3716
ag2
((lp3717
(lp3718
Vrevid
p3719
aI120102122
aa(lp3720
Vparentid
p3721
aI120101994
aa(lp3722
Vuser
p3723
aVDennyColt
p3724
aa(lp3725
Vtimestamp
p3726
ag13
((I2007
I4
I3
I23
I46
I57
I1
I93
I-1
t(dtRp3727
aa(lp3728
Vcomment
p3729
aV/* Epilogue */ ref section
p3730
aatRp3731
ag2
((lp3732
(lp3733
Vrevid
p3734
aI120101994
aa(lp3735
Vparentid
p3736
aI120101829
aa(lp3737
Vuser
p3738
aVDennyColt
p3739
aa(lp3740
Vtimestamp
p3741
ag13
((I2007
I4
I3
I23
I46
I20
I1
I93
I-1
t(dtRp3742
aa(lp3743
Vcomment
p3744
aV
aatRp3745
ag2
((lp3746
(lp3747
Vrevid
p3748
aI120101829
aa(lp3749
Vparentid
p3750
aI120101689
aa(lp3751
Vminor
p3752
aV
aa(lp3753
Vuser
p3754
aVDennyColt
p3755
aa(lp3756
Vtimestamp
p3757
ag13
((I2007
I4
I3
I23
I45
I29
I1
I93
I-1
t(dtRp3758
aa(lp3759
Vcomment
p3760
aV/* Criteria */
p3761
aatRp3762
ag2
((lp3763
(lp3764
Vrevid
p3765
aI120101689
aa(lp3766
Vparentid
p3767
aI120101514
aa(lp3768
Vuser
p3769
aVDennyColt
p3770
aa(lp3771
Vtimestamp
p3772
ag13
((I2007
I4
I3
I23
I44
I51
I1
I93
I-1
t(dtRp3773
aa(lp3774
Vcomment
p3775
aV/* Criteria */ now matches the others and is fairly balanced
p3776
aatRp3777
ag2
((lp3778
(lp3779
Vrevid
p3780
aI120101514
aa(lp3781
Vparentid
p3782
aI120101027
aa(lp3783
Vuser
p3784
aVDennyColt
p3785
aa(lp3786
Vtimestamp
p3787
ag13
((I2007
I4
I3
I23
I43
I59
I1
I93
I-1
t(dtRp3788
aa(lp3789
Vcomment
p3790
aVadd header matching other guidelines
p3791
aatRp3792
ag2
((lp3793
(lp3794
Vrevid
p3795
aI120101027
aa(lp3796
Vparentid
p3797
aI120099164
aa(lp3798
Vuser
p3799
aVDennyColt
p3800
aa(lp3801
Vtimestamp
p3802
ag13
((I2007
I4
I3
I23
I41
I26
I1
I93
I-1
t(dtRp3803
aa(lp3804
Vcomment
p3805
aVremoving the big honking probably label... the other guidelines for notability don't have a maybe sorta exemption like that. they need to be in line with each other.
p3806
aatRp3807
ag2
((lp3808
(lp3809
Vrevid
p3810
aI120099164
aa(lp3811
Vparentid
p3812
aI120095543
aa(lp3813
Vminor
p3814
aV
aa(lp3815
Vuser
p3816
aVProlog
p3817
aa(lp3818
Vtimestamp
p3819
ag13
((I2007
I4
I3
I23
I31
I52
I1
I93
I-1
t(dtRp3820
aa(lp3821
Vcomment
p3822
aVfixed capitalization per [[WP:MOSHEAD]] - I do not endorse upgrading this to guideline, though
p3823
aatRp3824
ag2
((lp3825
(lp3826
Vrevid
p3827
aI120095543
aa(lp3828
Vparentid
p3829
aI120092546
aa(lp3830
Vuser
p3831
aVMorton devonshire
p3832
aa(lp3833
Vtimestamp
p3834
ag13
((I2007
I4
I3
I23
I15
I28
I1
I93
I-1
t(dtRp3835
aa(lp3836
Vcomment
p3837
aVrv to consensus version
p3838
aatRp3839
ag2
((lp3840
(lp3841
Vrevid
p3842
aI120092546
aa(lp3843
Vparentid
p3844
aI120076754
aa(lp3845
Vuser
p3846
aVKevin Murray
p3847
aa(lp3848
Vtimestamp
p3849
ag13
((I2007
I4
I3
I23
I1
I44
I1
I93
I-1
t(dtRp3850
aa(lp3851
Vcomment
p3852
aVLet's find a middle ground while discussion continues.  It was a proposal before tagged for rejection.  Let's leave it there and see it approval can be established without a rush.
p3853
aatRp3854
ag2
((lp3855
(lp3856
Vrevid
p3857
aI120076754
aa(lp3858
Vparentid
p3859
aI120075946
aa(lp3860
Vuser
p3861
aVTom harrison
p3862
aa(lp3863
Vtimestamp
p3864
ag13
((I2007
I4
I3
I21
I44
I3
I1
I93
I-1
t(dtRp3865
aa(lp3866
Vcomment
p3867
aVrestore 'guideline'
p3868
aatRp3869
ag2
((lp3870
(lp3871
Vrevid
p3872
aI120075946
aa(lp3873
Vparentid
p3874
aI120056773
aa(lp3875
Vuser
p3876
aVKevin Murray
p3877
aa(lp3878
Vtimestamp
p3879
ag13
((I2007
I4
I3
I21
I40
I22
I1
I93
I-1
t(dtRp3880
aa(lp3881
Vcomment
p3882
aVNo there is plenty of opposition to this as a guideline
p3883
aatRp3884
ag2
((lp3885
(lp3886
Vrevid
p3887
aI120056773
aa(lp3888
Vparentid
p3889
aI120056601
aa(lp3890
Vuser
p3891
aVDennyColt
p3892
aa(lp3893
Vtimestamp
p3894
ag13
((I2007
I4
I3
I20
I17
I38
I1
I93
I-1
t(dtRp3895
aa(lp3896
Vcomment
p3897
aVwell, looks like NOTFILM already exists for this
p3898
aatRp3899
ag2
((lp3900
(lp3901
Vrevid
p3902
aI120056601
aa(lp3903
Vparentid
p3904
aI120056284
aa(lp3905
Vuser
p3906
aVDennyColt
p3907
aa(lp3908
Vtimestamp
p3909
ag13
((I2007
I4
I3
I20
I16
I44
I1
I93
I-1
t(dtRp3910
aa(lp3911
Vcomment
p3912
aVWP:FILMNOT - unused redirection short name thing
p3913
aatRp3914
ag2
((lp3915
(lp3916
Vrevid
p3917
aI120056284
aa(lp3918
Vparentid
p3919
aI120052618
aa(lp3920
Vuser
p3921
aVDennyColt
p3922
aa(lp3923
Vtimestamp
p3924
ag13
((I2007
I4
I3
I20
I15
I26
I1
I93
I-1
t(dtRp3925
aa(lp3926
Vcomment
p3927
aVcorrect tag
p3928
aatRp3929
ag2
((lp3930
(lp3931
Vrevid
p3932
aI120052618
aa(lp3933
Vparentid
p3934
aI120052530
aa(lp3935
Vuser
p3936
aVDennyColt
p3937
aa(lp3938
Vtimestamp
p3939
ag13
((I2007
I4
I3
I20
I0
I36
I1
I93
I-1
t(dtRp3940
aa(lp3941
Vcomment
p3942
aV
aatRp3943
ag2
((lp3944
(lp3945
Vrevid
p3946
aI120052530
aa(lp3947
Vparentid
p3948
aI119993164
aa(lp3949
Vuser
p3950
aVDennyColt
p3951
aa(lp3952
Vtimestamp
p3953
ag13
((I2007
I4
I3
I20
I0
I10
I1
I93
I-1
t(dtRp3954
aa(lp3955
Vcomment
p3956
aVseems to be at least a guideline based on talk page concensus
p3957
aatRp3958
ag2
((lp3959
(lp3960
Vrevid
p3961
aI119993164
aa(lp3962
Vparentid
p3963
aI119993085
aa(lp3964
Vuser
p3965
aVAlison
p3966
aa(lp3967
Vtimestamp
p3968
ag13
((I2007
I4
I3
I15
I41
I14
I1
I93
I-1
t(dtRp3969
aa(lp3970
Vcomment
p3971
aV-pp
p3972
aatRp3973
ag2
((lp3974
(lp3975
Vrevid
p3976
aI119993085
aa(lp3977
Vparentid
p3978
aI119060865
aa(lp3979
Vminor
p3980
aV
aa(lp3981
Vuser
p3982
aVAlison
p3983
aa(lp3984
Vtimestamp
p3985
ag13
((I2007
I4
I3
I15
I40
I48
I1
I93
I-1
t(dtRp3986
aa(lp3987
Vcomment
p3988
aVUnprotected Wikipedia:Notability (films): Tentative unprotect per [[WP:RFPP]] request. Seems to be all quiet now
p3989
aatRp3990
ag2
((lp3991
(lp3992
Vrevid
p3993
aI119060865
aa(lp3994
Vparentid
p3995
aI115570235
aa(lp3996
Vminor
p3997
aV
aa(lp3998
Vuser
p3999
aVAzaToth
p4000
aa(lp4001
Vtimestamp
p4002
ag13
((I2007
I3
I30
I16
I2
I23
I4
I89
I-1
t(dtRp4003
aa(lp4004
Vcomment
p4005
aVChanging protection template from {{protected}} to {{pp-dispute}}
p4006
aatRp4007
ag2
((lp4008
(lp4009
Vrevid
p4010
aI115570235
aa(lp4011
Vparentid
p4012
aI115570016
aa(lp4013
Vuser
p4014
aVGnangarra
p4015
aa(lp4016
Vtimestamp
p4017
ag13
((I2007
I3
I16
I15
I22
I2
I4
I75
I-1
t(dtRp4018
aa(lp4019
Vcomment
p4020
aV+protected
p4021
aatRp4022
ag2
((lp4023
(lp4024
Vrevid
p4025
aI115570016
aa(lp4026
Vparentid
p4027
aI115524457
aa(lp4028
Vminor
p4029
aV
aa(lp4030
Vuser
p4031
aVGnangarra
p4032
aa(lp4033
Vtimestamp
p4034
ag13
((I2007
I3
I16
I15
I21
I0
I4
I75
I-1
t(dtRp4035
aa(lp4036
Vcomment
p4037
aVProtected Wikipedia:Notability (films): until discussions about merge proposal have clamed down [edit=sysop:move=sysop]
p4038
aatRp4039
ag2
((lp4040
(lp4041
Vrevid
p4042
aI115524457
aa(lp4043
Vparentid
p4044
aI115524203
aa(lp4045
Vuser
p4046
aVKevin Murray
p4047
aa(lp4048
Vtimestamp
p4049
ag13
((I2007
I3
I16
I10
I12
I23
I4
I75
I-1
t(dtRp4050
aa(lp4051
Vcomment
p4052
aVmarked as rejected, but compromise on the merge tag
p4053
aatRp4054
ag2
((lp4055
(lp4056
Vrevid
p4057
aI115524203
aa(lp4058
Vparentid
p4059
aI115523784
aa(lp4060
Vuser
p4061
aVRadiant!
p4062
aa(lp4063
Vtimestamp
p4064
ag13
((I2007
I3
I16
I10
I9
I49
I4
I75
I-1
t(dtRp4065
aa(lp4066
Vcomment
p4067
aVOkay, if you're so against the merge I'll use the {{mergedisputed}} tag. But really, a merge proposal is supposed to be discussed, not blindly removed.
p4068
aatRp4069
ag2
((lp4070
(lp4071
Vrevid
p4072
aI115523784
aa(lp4073
Vparentid
p4074
aI115523461
aa(lp4075
Vuser
p4076
aVKevin Murray
p4077
aa(lp4078
Vtimestamp
p4079
ag13
((I2007
I3
I16
I10
I6
I50
I4
I75
I-1
t(dtRp4080
aa(lp4081
Vcomment
p4082
aVPointless to try to merge a failed concept.  Just try to add at the target page if accepted
p4083
aatRp4084
ag2
((lp4085
(lp4086
Vrevid
p4087
aI115523461
aa(lp4088
Vparentid
p4089
aI115522634
aa(lp4090
Vuser
p4091
aVRadiant!
p4092
aa(lp4093
Vtimestamp
p4094
ag13
((I2007
I3
I16
I10
I3
I57
I4
I75
I-1
t(dtRp4095
aa(lp4096
Vcomment
p4097
aVYou're not supposed to revert good-faith merge tags. Rather, discuss on the talk page why you think the page should, or should not, be merged.
p4098
aatRp4099
ag2
((lp4100
(lp4101
Vrevid
p4102
aI115522634
aa(lp4103
Vparentid
p4104
aI115521930
aa(lp4105
Vuser
p4106
aVKevin Murray
p4107
aa(lp4108
Vtimestamp
p4109
ag13
((I2007
I3
I16
I9
I55
I18
I4
I75
I-1
t(dtRp4110
aa(lp4111
Vcomment
p4112
aVWrong conclusion
p4113
aatRp4114
ag2
((lp4115
(lp4116
Vrevid
p4117
aI115521930
aa(lp4118
Vparentid
p4119
aI114590864
aa(lp4120
Vuser
p4121
aVRadiant!
p4122
aa(lp4123
Vtimestamp
p4124
ag13
((I2007
I3
I16
I9
I48
I44
I4
I75
I-1
t(dtRp4125
aa(lp4126
Vcomment
p4127
aVdoes not follow, per talk page. Rather, suggesting merge
p4128
aatRp4129
ag2
((lp4130
(lp4131
Vrevid
p4132
aI114590864
aa(lp4133
Vparentid
p4134
aI114588231
aa(lp4135
Vuser
p4136
aVKevin Murray
p4137
aa(lp4138
Vtimestamp
p4139
ag13
((I2007
I3
I12
I18
I0
I51
I0
I71
I-1
t(dtRp4140
aa(lp4141
Vcomment
p4142
aVtagged as rejected
p4143
aatRp4144
ag2
((lp4145
(lp4146
Vrevid
p4147
aI114588231
aa(lp4148
Vparentid
p4149
aI114588171
aa(lp4150
Vuser
p4151
aVSteel
p4152
aa(lp4153
Vtimestamp
p4154
ag13
((I2007
I3
I12
I17
I49
I2
I0
I71
I-1
t(dtRp4155
aa(lp4156
Vcomment
p4157
aV- {{Protected}}
p4158
aatRp4159
ag2
((lp4160
(lp4161
Vrevid
p4162
aI114588171
aa(lp4163
Vparentid
p4164
aI111804917
aa(lp4165
Vminor
p4166
aV
aa(lp4167
Vuser
p4168
aVSteel
p4169
aa(lp4170
Vtimestamp
p4171
ag13
((I2007
I3
I12
I17
I48
I45
I0
I71
I-1
t(dtRp4172
aa(lp4173
Vcomment
p4174
aVUnprotected Wikipedia:Notability (films): Seems to have calmed down
p4175
aatRp4176
ag2
((lp4177
(lp4178
Vrevid
p4179
aI111804917
aa(lp4180
Vparentid
p4181
aI111804891
aa(lp4182
Vminor
p4183
aV
aa(lp4184
Vuser
p4185
aVMajorly
p4186
aa(lp4187
Vtimestamp
p4188
ag13
((I2007
I3
I1
I11
I23
I6
I3
I60
I-1
t(dtRp4189
aa(lp4190
Vcomment
p4191
aV{{protect}}
p4192
aatRp4193
ag2
((lp4194
(lp4195
Vrevid
p4196
aI111804891
aa(lp4197
Vparentid
p4198
aI111789545
aa(lp4199
Vminor
p4200
aV
aa(lp4201
Vuser
p4202
aVMajorly
p4203
aa(lp4204
Vtimestamp
p4205
ag13
((I2007
I3
I1
I11
I22
I48
I3
I60
I-1
t(dtRp4206
aa(lp4207
Vcomment
p4208
aVProtected Wikipedia:Notability (films): edit warring [edit=sysop:move=sysop]
p4209
aatRp4210
ag2
((lp4211
(lp4212
Vrevid
p4213
aI111789545
aa(lp4214
Vparentid
p4215
aI111788853
aa(lp4216
Vuser
p4217
aVDerex
p4218
aa(lp4219
Vtimestamp
p4220
ag13
((I2007
I3
I1
I8
I59
I15
I3
I60
I-1
t(dtRp4221
aa(lp4222
Vcomment
p4223
aVlook, this is *definitely* not a consensus guideline.  at *best* it is a proposal, so leave it at that for now.  this needs an RFC to see if it has any chance of survival
p4224
aatRp4225
ag2
((lp4226
(lp4227
Vrevid
p4228
aI111788853
aa(lp4229
Vparentid
p4230
aI111784244
aa(lp4231
Vuser
p4232
aVBrimba
p4233
aa(lp4234
Vtimestamp
p4235
ag13
((I2007
I3
I1
I8
I52
I42
I3
I60
I-1
t(dtRp4236
aa(lp4237
Vcomment
p4238
aVrv
p4239
aatRp4240
ag2
((lp4241
(lp4242
Vrevid
p4243
aI111784244
aa(lp4244
Vparentid
p4245
aI111783980
aa(lp4246
Vuser
p4247
aVKevin Murray
p4248
aa(lp4249
Vtimestamp
p4250
ag13
((I2007
I3
I1
I8
I7
I54
I3
I60
I-1
t(dtRp4251
aa(lp4252
Vcomment
p4253
aVReverted unsupported protection of a rejected theme
p4254
aatRp4255
ag2
((lp4256
(lp4257
Vrevid
p4258
aI111783980
aa(lp4259
Vparentid
p4260
aI111736859
aa(lp4261
Vuser
p4262
aVMorton devonshire
p4263
aa(lp4264
Vtimestamp
p4265
ag13
((I2007
I3
I1
I8
I5
I31
I3
I60
I-1
t(dtRp4266
aa(lp4267
Vcomment
p4268
aVwidely used guideline -- don't be a hater
p4269
aatRp4270
ag2
((lp4271
(lp4272
Vrevid
p4273
aI111736859
aa(lp4274
Vparentid
p4275
aI111725168
aa(lp4276
Vuser
p4277
aVDerex
p4278
aa(lp4279
Vtimestamp
p4280
ag13
((I2007
I3
I1
I2
I39
I45
I3
I60
I-1
t(dtRp4281
aa(lp4282
Vcomment
p4283
aVthis is not even remotely close to consensus, and the mfd keep was *explicitly* not an endorsement of this as guideline
p4284
aatRp4285
ag2
((lp4286
(lp4287
Vrevid
p4288
aI111725168
aa(lp4289
Vparentid
p4290
aI111686824
aa(lp4291
Vuser
p4292
aVDHeyward
p4293
aa(lp4294
Vtimestamp
p4295
ag13
((I2007
I3
I1
I1
I42
I7
I3
I60
I-1
t(dtRp4296
aa(lp4297
Vcomment
p4298
aVThe MfD was keep and it appears to have broad consensus as a guideline for films.
p4299
aatRp4300
ag2
((lp4301
(lp4302
Vrevid
p4303
aI111686824
aa(lp4304
Vparentid
p4305
aI111686462
aa(lp4306
Vuser
p4307
aVKevin Murray
p4308
aa(lp4309
Vtimestamp
p4310
ag13
((I2007
I2
I28
I22
I47
I8
I2
I59
I-1
t(dtRp4311
aa(lp4312
Vcomment
p4313
aVposting the policy
p4314
aatRp4315
ag2
((lp4316
(lp4317
Vrevid
p4318
aI111686462
aa(lp4319
Vparentid
p4320
aI111684687
aa(lp4321
Vuser
p4322
aVKevin Murray
p4323
aa(lp4324
Vtimestamp
p4325
ag13
((I2007
I2
I28
I22
I45
I37
I2
I59
I-1
t(dtRp4326
aa(lp4327
Vcomment
p4328
aVThe guidelines are clear.  The talk page is clear. The MfD was clear.  Removing the tag is obstructing the inevitable.
p4329
aatRp4330
ag2
((lp4331
(lp4332
Vrevid
p4333
aI111684687
aa(lp4334
Vparentid
p4335
aI111683224
aa(lp4336
Vuser
p4337
aVMorton devonshire
p4338
aa(lp4339
Vtimestamp
p4340
ag13
((I2007
I2
I28
I22
I38
I6
I2
I59
I-1
t(dtRp4341
aa(lp4342
Vcomment
p4343
aVplease do not deliberately disregard the talk page
p4344
aatRp4345
ag2
((lp4346
(lp4347
Vrevid
p4348
aI111683224
aa(lp4349
Vparentid
p4350
aI111674191
aa(lp4351
Vuser
p4352
aVKevin Murray
p4353
aa(lp4354
Vtimestamp
p4355
ag13
((I2007
I2
I28
I22
I31
I55
I2
I59
I-1
t(dtRp4356
aa(lp4357
Vcomment
p4358
aVtagged per consensus
p4359
aatRp4360
ag2
((lp4361
(lp4362
Vrevid
p4363
aI111674191
aa(lp4364
Vparentid
p4365
aI111609655
aa(lp4366
Vuser
p4367
aVIkiroid
p4368
aa(lp4369
Vtimestamp
p4370
ag13
((I2007
I2
I28
I21
I53
I24
I2
I59
I-1
t(dtRp4371
aa(lp4372
Vcomment
p4373
aVmfd done, nom withdrawn
p4374
aatRp4375
ag2
((lp4376
(lp4377
Vrevid
p4378
aI111609655
aa(lp4379
Vparentid
p4380
aI111389920
aa(lp4381
Vminor
p4382
aV
aa(lp4383
Vuser
p4384
aVAltes
p4385
aa(lp4386
Vtimestamp
p4387
ag13
((I2007
I2
I28
I17
I2
I19
I2
I59
I-1
t(dtRp4388
aa(lp4389
Vcomment
p4390
aV/* Relevant debates */ ru
p4391
aatRp4392
ag2
((lp4393
(lp4394
Vrevid
p4395
aI111389920
aa(lp4396
Vparentid
p4397
aI111389594
aa(lp4398
Vuser
p4399
aVDennyColt
p4400
aa(lp4401
Vtimestamp
p4402
ag13
((I2007
I2
I27
I19
I24
I25
I1
I58
I-1
t(dtRp4403
aa(lp4404
Vcomment
p4405
aV[[WP:AES|\u2190]]Undid revision 111389594 by [[Special:Contributions/DennyColt|DennyColt]] ([[User talk:DennyColt|talk]]) self rv per history
p4406
aatRp4407
ag2
((lp4408
(lp4409
Vrevid
p4410
aI111389594
aa(lp4411
Vparentid
p4412
aI111332603
aa(lp4413
Vuser
p4414
aVDennyColt
p4415
aa(lp4416
Vtimestamp
p4417
ag13
((I2007
I2
I27
I19
I22
I48
I1
I58
I-1
t(dtRp4418
aa(lp4419
Vcomment
p4420
aVrejected per [[Wikipedia:Miscellany for deletion/Wikipedia:Notability (films)]]
p4421
aatRp4422
ag2
((lp4423
(lp4424
Vrevid
p4425
aI111332603
aa(lp4426
Vparentid
p4427
aI111289238
aa(lp4428
Vuser
p4429
aVMinderbinder~enwiki
p4430
aa(lp4431
Vtimestamp
p4432
ag13
((I2007
I2
I27
I14
I39
I52
I1
I58
I-1
t(dtRp4433
aa(lp4434
Vcomment
p4435
aVremoved "rejected" tag for now - it's a bit ridiculous to make a change "per MfD" when it has only been open a few hours.  Wait until the MfD closes and there's a result.
p4436
aatRp4437
ag2
((lp4438
(lp4439
Vrevid
p4440
aI111289238
aa(lp4441
Vparentid
p4442
aI111285263
aa(lp4443
Vminor
p4444
aV
aa(lp4445
Vuser
p4446
aVProlog
p4447
aa(lp4448
Vtimestamp
p4449
ag13
((I2007
I2
I27
I8
I26
I9
I1
I58
I-1
t(dtRp4450
aa(lp4451
Vcomment
p4452
aVrestored shortcut
p4453
aatRp4454
ag2
((lp4455
(lp4456
Vrevid
p4457
aI111285263
aa(lp4458
Vparentid
p4459
aI111285218
aa(lp4460
Vuser
p4461
aVKevin Murray
p4462
aa(lp4463
Vtimestamp
p4464
ag13
((I2007
I2
I27
I7
I46
I19
I1
I58
I-1
t(dtRp4465
aa(lp4466
Vcomment
p4467
aV
aatRp4468
ag2
((lp4469
(lp4470
Vrevid
p4471
aI111285218
aa(lp4472
Vparentid
p4473
aI111208672
aa(lp4474
Vuser
p4475
aVKevin Murray
p4476
aa(lp4477
Vtimestamp
p4478
ag13
((I2007
I2
I27
I7
I45
I50
I1
I58
I-1
t(dtRp4479
aa(lp4480
Vcomment
p4481
aVRejected per AfD discussion
p4482
aatRp4483
ag2
((lp4484
(lp4485
Vrevid
p4486
aI111208672
aa(lp4487
Vparentid
p4488
aI104535508
aa(lp4489
Vuser
p4490
aVKevin Murray
p4491
aa(lp4492
Vtimestamp
p4493
ag13
((I2007
I2
I27
I0
I27
I3
I1
I58
I-1
t(dtRp4494
aa(lp4495
Vcomment
p4496
aVnominated for deletion - redundant to other notability criteria
p4497
aatRp4498
ag2
((lp4499
(lp4500
Vrevid
p4501
aI104535508
aa(lp4502
Vparentid
p4503
aI104535469
aa(lp4504
Vminor
p4505
aV
aa(lp4506
Vuser
p4507
aVEsn
p4508
aa(lp4509
Vtimestamp
p4510
ag13
((I2007
I1
I31
I7
I56
I24
I2
I31
I-1
t(dtRp4511
aa(lp4512
Vcomment
p4513
aV/* Future films, Incomplete films, and Undistributed films */
p4514
aatRp4515
ag2
((lp4516
(lp4517
Vrevid
p4518
aI104535469
aa(lp4519
Vparentid
p4520
aI103135547
aa(lp4521
Vminor
p4522
aV
aa(lp4523
Vuser
p4524
aVEsn
p4525
aa(lp4526
Vtimestamp
p4527
ag13
((I2007
I1
I31
I7
I56
I1
I2
I31
I-1
t(dtRp4528
aa(lp4529
Vcomment
p4530
aV/* Future films, Incomplete films, and Undistributed films */
p4531
aatRp4532
ag2
((lp4533
(lp4534
Vrevid
p4535
aI103135547
aa(lp4536
Vparentid
p4537
aI103133414
aa(lp4538
Vuser
p4539
aVZadignose
p4540
aa(lp4541
Vtimestamp
p4542
ag13
((I2007
I1
I25
I13
I35
I28
I3
I25
I-1
t(dtRp4543
aa(lp4544
Vcomment
p4545
aV/* Other evidence of Notability */ better placement of footnote 9
p4546
aatRp4547
ag2
((lp4548
(lp4549
Vrevid
p4550
aI103133414
aa(lp4551
Vparentid
p4552
aI102751365
aa(lp4553
Vuser
p4554
aVZadignose
p4555
aa(lp4556
Vtimestamp
p4557
ag13
((I2007
I1
I25
I13
I18
I18
I3
I25
I-1
t(dtRp4558
aa(lp4559
Vcomment
p4560
aVMerging ideas, reorganizing
p4561
aatRp4562
ag2
((lp4563
(lp4564
Vrevid
p4565
aI102751365
aa(lp4566
Vparentid
p4567
aI102751215
aa(lp4568
Vminor
p4569
aV
aa(lp4570
Vuser
p4571
aVEsn
p4572
aa(lp4573
Vtimestamp
p4574
ag13
((I2007
I1
I23
I21
I20
I0
I1
I23
I-1
t(dtRp4575
aa(lp4576
Vcomment
p4577
aV/* Notes */
p4578
aatRp4579
ag2
((lp4580
(lp4581
Vrevid
p4582
aI102751215
aa(lp4583
Vparentid
p4584
aI102748595
aa(lp4585
Vuser
p4586
aVEsn
p4587
aa(lp4588
Vtimestamp
p4589
ag13
((I2007
I1
I23
I21
I19
I21
I1
I23
I-1
t(dtRp4590
aa(lp4591
Vcomment
p4592
aVnote
p4593
aatRp4594
ag2
((lp4595
(lp4596
Vrevid
p4597
aI102748595
aa(lp4598
Vparentid
p4599
aI102748085
aa(lp4600
Vminor
p4601
aV
aa(lp4602
Vuser
p4603
aVEsn
p4604
aa(lp4605
Vtimestamp
p4606
ag13
((I2007
I1
I23
I21
I8
I10
I1
I23
I-1
t(dtRp4607
aa(lp4608
Vcomment
p4609
aV/* Other evidence of Notability */
p4610
aatRp4611
ag2
((lp4612
(lp4613
Vrevid
p4614
aI102748085
aa(lp4615
Vparentid
p4616
aI102747622
aa(lp4617
Vuser
p4618
aVEsn
p4619
aa(lp4620
Vtimestamp
p4621
ag13
((I2007
I1
I23
I21
I5
I55
I1
I23
I-1
t(dtRp4622
aa(lp4623
Vcomment
p4624
aV/* Historically Notable films */
p4625
aatRp4626
ag2
((lp4627
(lp4628
Vrevid
p4629
aI102747622
aa(lp4630
Vparentid
p4631
aI102682657
aa(lp4632
Vuser
p4633
aVEsn
p4634
aa(lp4635
Vtimestamp
p4636
ag13
((I2007
I1
I23
I21
I3
I53
I1
I23
I-1
t(dtRp4637
aa(lp4638
Vcomment
p4639
aVbeing bold and adding the changes that I proposed ;)  all up for debate, of course
p4640
aatRp4641
ag2
((lp4642
(lp4643
Vrevid
p4644
aI102682657
aa(lp4645
Vparentid
p4646
aI102681257
aa(lp4647
Vuser
p4648
aVZadignose
p4649
aa(lp4650
Vtimestamp
p4651
ag13
((I2007
I1
I23
I15
I57
I37
I1
I23
I-1
t(dtRp4652
aa(lp4653
Vcomment
p4654
aV/* Historically Notable films */ reprinted contemprorary reviews, and second editons should be okay... I think...
p4655
aatRp4656
ag2
((lp4657
(lp4658
Vrevid
p4659
aI102681257
aa(lp4660
Vparentid
p4661
aI102652167
aa(lp4662
Vuser
p4663
aVZadignose
p4664
aa(lp4665
Vtimestamp
p4666
ag13
((I2007
I1
I23
I15
I49
I44
I1
I23
I-1
t(dtRp4667
aa(lp4668
Vcomment
p4669
aVAbbreviated preamble
p4670
aatRp4671
ag2
((lp4672
(lp4673
Vrevid
p4674
aI102652167
aa(lp4675
Vparentid
p4676
aI101588490
aa(lp4677
Vuser
p4678
aVZadignose
p4679
aa(lp4680
Vtimestamp
p4681
ag13
((I2007
I1
I23
I12
I35
I55
I1
I23
I-1
t(dtRp4682
aa(lp4683
Vcomment
p4684
aVMajor revisions, tighter standards proposed, many specifics
p4685
aatRp4686
ag2
((lp4687
(lp4688
Vrevid
p4689
aI101588490
aa(lp4690
Vparentid
p4691
aI101588323
aa(lp4692
Vuser
p4693
aVKafziel
p4694
aa(lp4695
Vtimestamp
p4696
ag13
((I2007
I1
I18
I17
I5
I46
I3
I18
I-1
t(dtRp4697
aa(lp4698
Vcomment
p4699
aV+proposed tag
p4700
aatRp4701
ag2
((lp4702
(lp4703
Vrevid
p4704
aI101588323
aa(lp4705
Vparentid
p4706
aI96234786
aa(lp4707
Vuser
p4708
aVKafziel
p4709
aa(lp4710
Vtimestamp
p4711
ag13
((I2007
I1
I18
I17
I5
I3
I3
I18
I-1
t(dtRp4712
aa(lp4713
Vcomment
p4714
aVrm historical
p4715
aatRp4716
ag2
((lp4717
(lp4718
Vrevid
p4719
aI96234786
aa(lp4720
Vparentid
p4721
aI96209808
aa(lp4722
Vminor
p4723
aV
aa(lp4724
Vuser
p4725
aVSupernumerary
p4726
aa(lp4727
Vtimestamp
p4728
ag13
((I2006
I12
I24
I6
I34
I20
I6
I358
I-1
t(dtRp4729
aa(lp4730
Vcomment
p4731
aV/* Released films */ rm studio list
p4732
aatRp4733
ag2
((lp4734
(lp4735
Vrevid
p4736
aI96209808
aa(lp4737
Vparentid
p4738
aI90889049
aa(lp4739
Vuser
p4740
aVSupernumerary
p4741
aa(lp4742
Vtimestamp
p4743
ag13
((I2006
I12
I24
I2
I58
I4
I6
I358
I-1
t(dtRp4744
aa(lp4745
Vcomment
p4746
aV/* Released films */ specificy the major studios
p4747
aatRp4748
ag2
((lp4749
(lp4750
Vrevid
p4751
aI90889049
aa(lp4752
Vparentid
p4753
aI86703364
aa(lp4754
Vuser
p4755
aVRadiant!
p4756
aa(lp4757
Vtimestamp
p4758
ag13
((I2006
I11
I29
I12
I51
I34
I2
I333
I-1
t(dtRp4759
aa(lp4760
Vcomment
p4761
aV{{historical}}, lack of recent debate and no apparent consensus on talk page; proponents of this proposal are advised to advertise it, e.g. at the village pump
p4762
aatRp4763
ag2
((lp4764
(lp4765
Vrevid
p4766
aI86703364
aa(lp4767
Vparentid
p4768
aI82571177
aa(lp4769
Vuser
p4770
aVZezzzsz
p4771
aa(lp4772
Vtimestamp
p4773
ag13
((I2006
I11
I9
I12
I53
I6
I3
I313
I-1
t(dtRp4774
aa(lp4775
Vcomment
p4776
aV
aatRp4777
ag2
((lp4778
(lp4779
Vrevid
p4780
aI82571177
aa(lp4781
Vparentid
p4782
aI79575183
aa(lp4783
Vminor
p4784
aV
aa(lp4785
Vuser
p4786
aVEVula
p4787
aa(lp4788
Vtimestamp
p4789
ag13
((I2006
I10
I20
I5
I3
I51
I4
I293
I-1
t(dtRp4790
aa(lp4791
Vcomment
p4792
aV/* Released Films */ uncapping head
p4793
aatRp4794
ag2
((lp4795
(lp4796
Vrevid
p4797
aI79575183
aa(lp4798
Vparentid
p4799
aI78278368
aa(lp4800
Vuser
p4801
aVEluchil404
p4802
aa(lp4803
Vtimestamp
p4804
ag13
((I2006
I10
I5
I2
I31
I46
I3
I278
I-1
t(dtRp4805
aa(lp4806
Vcomment
p4807
aV/* Votes for deletion */  add link to deletion sorting page and remove old discussions
p4808
aatRp4809
ag2
((lp4810
(lp4811
Vrevid
p4812
aI78278368
aa(lp4813
Vparentid
p4814
aI77891887
aa(lp4815
Vuser
p4816
aVUncle G
p4817
aa(lp4818
Vtimestamp
p4819
ag13
((I2006
I9
I28
I10
I11
I2
I3
I271
I-1
t(dtRp4820
aa(lp4821
Vcomment
p4822
aVAdjusted PNC elaboration to bring it into line with improved WP:CORP and WP:SCHOOL wording.
p4823
aatRp4824
ag2
((lp4825
(lp4826
Vrevid
p4827
aI77891887
aa(lp4828
Vparentid
p4829
aI77871141
aa(lp4830
Vuser
p4831
aVPascal.Tesson
p4832
aa(lp4833
Vtimestamp
p4834
ag13
((I2006
I9
I26
I12
I21
I25
I1
I269
I-1
t(dtRp4835
aa(lp4836
Vcomment
p4837
aVok so how about this then?
p4838
aatRp4839
ag2
((lp4840
(lp4841
Vrevid
p4842
aI77871141
aa(lp4843
Vparentid
p4844
aI77818704
aa(lp4845
Vuser
p4846
aVThivierr
p4847
aa(lp4848
Vtimestamp
p4849
ag13
((I2006
I9
I26
I8
I28
I44
I1
I269
I-1
t(dtRp4850
aa(lp4851
Vcomment
p4852
aVrv - It's what's reliable, which counts.  A limited circulation publication could be highly respected within the industry (or a particular segment)
p4853
aatRp4854
ag2
((lp4855
(lp4856
Vrevid
p4857
aI77818704
aa(lp4858
Vparentid
p4859
aI77817275
aa(lp4860
Vuser
p4861
aVPascal.Tesson
p4862
aa(lp4863
Vtimestamp
p4864
ag13
((I2006
I9
I26
I0
I40
I35
I1
I269
I-1
t(dtRp4865
aa(lp4866
Vcomment
p4867
aV/* Released Films */  very local publications should be excluded I think
p4868
aatRp4869
ag2
((lp4870
(lp4871
Vrevid
p4872
aI77817275
aa(lp4873
Vparentid
p4874
aI77803448
aa(lp4875
Vuser
p4876
aVEluchil404
p4877
aa(lp4878
Vtimestamp
p4879
ag13
((I2006
I9
I26
I0
I30
I47
I1
I269
I-1
t(dtRp4880
aa(lp4881
Vcomment
p4882
aV/* Epilogue */  rewrite to reflect new status as a proposed guideline and stability
p4883
aatRp4884
ag2
((lp4885
(lp4886
Vrevid
p4887
aI77803448
aa(lp4888
Vparentid
p4889
aI76659824
aa(lp4890
Vminor
p4891
aV
aa(lp4892
Vuser
p4893
aVRadiant!
p4894
aa(lp4895
Vtimestamp
p4896
ag13
((I2006
I9
I25
I22
I56
I14
I0
I268
I-1
t(dtRp4897
aa(lp4898
Vcomment
p4899
aVrecat
p4900
aatRp4901
ag2
((lp4902
(lp4903
Vrevid
p4904
aI76659824
aa(lp4905
Vparentid
p4906
aI76659792
aa(lp4907
Vminor
p4908
aV
aa(lp4909
Vuser
p4910
aVEluchil404
p4911
aa(lp4912
Vtimestamp
p4913
ag13
((I2006
I9
I19
I21
I12
I1
I1
I262
I-1
t(dtRp4914
aa(lp4915
Vcomment
p4916
aVchanged description from essay to proposal
p4917
aatRp4918
ag2
((lp4919
(lp4920
Vrevid
p4921
aI76659792
aa(lp4922
Vparentid
p4923
aI74942151
aa(lp4924
Vuser
p4925
aVEluchil404
p4926
aa(lp4927
Vtimestamp
p4928
ag13
((I2006
I9
I19
I21
I11
I51
I1
I262
I-1
t(dtRp4929
aa(lp4930
Vcomment
p4931
aVchanged description from essay to proposal
p4932
aatRp4933
ag2
((lp4934
(lp4935
Vrevid
p4936
aI74942151
aa(lp4937
Vparentid
p4938
aI74609149
aa(lp4939
Vuser
p4940
aVExtraordinary Machine
p4941
aa(lp4942
Vtimestamp
p4943
ag13
((I2006
I9
I10
I18
I24
I7
I6
I253
I-1
t(dtRp4944
aa(lp4945
Vcomment
p4946
aV/* Unreleased Films */ some tidying
p4947
aatRp4948
ag2
((lp4949
(lp4950
Vrevid
p4951
aI74609149
aa(lp4952
Vparentid
p4953
aI74404294
aa(lp4954
Vuser
p4955
aVMujinga
p4956
aa(lp4957
Vtimestamp
p4958
ag13
((I2006
I9
I8
I22
I36
I10
I4
I251
I-1
t(dtRp4959
aa(lp4960
Vcomment
p4961
aV/* Votes for deletion */
p4962
aatRp4963
ag2
((lp4964
(lp4965
Vrevid
p4966
aI74404294
aa(lp4967
Vparentid
p4968
aI72460234
aa(lp4969
Vuser
p4970
aVRadiant!
p4971
aa(lp4972
Vtimestamp
p4973
ag13
((I2006
I9
I7
I21
I22
I52
I3
I250
I-1
t(dtRp4974
aa(lp4975
Vcomment
p4976
aVrecat as proposal
p4977
aatRp4978
ag2
((lp4979
(lp4980
Vrevid
p4981
aI72460234
aa(lp4982
Vparentid
p4983
aI70767509
aa(lp4984
Vuser
p4985
aVPoccil
p4986
aa(lp4987
Vtimestamp
p4988
ag13
((I2006
I8
I28
I20
I32
I7
I0
I240
I-1
t(dtRp4989
aa(lp4990
Vcomment
p4991
aV/* Released Films */
p4992
aatRp4993
ag2
((lp4994
(lp4995
Vrevid
p4996
aI70767509
aa(lp4997
Vparentid
p4998
aI67283556
aa(lp4999
Vuser
p5000
aVThe JPS
p5001
aa(lp5002
Vtimestamp
p5003
ag13
((I2006
I8
I20
I14
I34
I24
I6
I232
I-1
t(dtRp5004
aa(lp5005
Vcomment
p5006
aV/* Relevant debates */ [[Wikipedia:Articles for deletion/JFK II: The Bush Connection|JFK II: The Bush Connection]]
p5007
aatRp5008
ag2
((lp5009
(lp5010
Vrevid
p5011
aI67283556
aa(lp5012
Vparentid
p5013
aI66941322
aa(lp5014
Vminor
p5015
aV
aa(lp5016
Vuser
p5017
aVBobo192
p5018
aa(lp5019
Vtimestamp
p5020
ag13
((I2006
I8
I2
I18
I36
I13
I2
I214
I-1
t(dtRp5021
aa(lp5022
Vcomment
p5023
aVTypo, closed bracket
p5024
aatRp5025
ag2
((lp5026
(lp5027
Vrevid
p5028
aI66941322
aa(lp5029
Vparentid
p5030
aI66906636
aa(lp5031
Vminor
p5032
aV
aa(lp5033
Vuser
p5034
aVEluchil404
p5035
aa(lp5036
Vtimestamp
p5037
ag13
((I2006
I7
I31
I23
I8
I57
I0
I212
I-1
t(dtRp5038
aa(lp5039
Vcomment
p5040
aV/* Released Films */  style of point four
p5041
aatRp5042
ag2
((lp5043
(lp5044
Vrevid
p5045
aI66906636
aa(lp5046
Vparentid
p5047
aI66906530
aa(lp5048
Vuser
p5049
aVUncle G
p5050
aa(lp5051
Vtimestamp
p5052
ag13
((I2006
I7
I31
I19
I33
I33
I0
I212
I-1
t(dtRp5053
aa(lp5054
Vcomment
p5055
aV/* Notes */ added.
p5056
aatRp5057
ag2
((lp5058
(lp5059
Vrevid
p5060
aI66906530
aa(lp5061
Vparentid
p5062
aI66615156
aa(lp5063
Vuser
p5064
aVUncle G
p5065
aa(lp5066
Vtimestamp
p5067
ag13
((I2006
I7
I31
I19
I32
I45
I0
I212
I-1
t(dtRp5068
aa(lp5069
Vcomment
p5070
aV/* Released Films */ Moved PNC to first position, to match other pages.
p5071
aatRp5072
ag2
((lp5073
(lp5074
Vrevid
p5075
aI66615156
aa(lp5076
Vparentid
p5077
aI66581040
aa(lp5078
Vuser
p5079
aVThivierr
p5080
aa(lp5081
Vtimestamp
p5082
ag13
((I2006
I7
I30
I1
I48
I28
I6
I211
I-1
t(dtRp5083
aa(lp5084
Vcomment
p5085
aVremoved the "50" rule.  It makes no sense.  200 is the min for this one item.  If a film has under 50 (or under 200) it must satisfy another item to be included
p5086
aatRp5087
ag2
((lp5088
(lp5089
Vrevid
p5090
aI66581040
aa(lp5091
Vparentid
p5092
aI65387938
aa(lp5093
Vuser
p5094
aVThivierr
p5095
aa(lp5096
Vtimestamp
p5097
ag13
((I2006
I7
I29
I21
I24
I41
I5
I210
I-1
t(dtRp5098
aa(lp5099
Vcomment
p5100
aV/* Released Films */ Substantial writing about it is what counts.  Let's not list all the reasons why they may write about it.
p5101
aatRp5102
ag2
((lp5103
(lp5104
Vrevid
p5105
aI65387938
aa(lp5106
Vparentid
p5107
aI62956176
aa(lp5108
Vminor
p5109
aV
aa(lp5110
Vuser
p5111
aVSMcCandlish
p5112
aa(lp5113
Vtimestamp
p5114
ag13
((I2006
I7
I23
I15
I45
I48
I6
I204
I-1
t(dtRp5115
aa(lp5116
Vcomment
p5117
aVFixed category link.
p5118
aatRp5119
ag2
((lp5120
(lp5121
Vrevid
p5122
aI62956176
aa(lp5123
Vparentid
p5124
aI62439462
aa(lp5125
Vuser
p5126
aVEluchil404
p5127
aa(lp5128
Vtimestamp
p5129
ag13
((I2006
I7
I9
I23
I34
I33
I6
I190
I-1
t(dtRp5130
aa(lp5131
Vcomment
p5132
aVchanged release criterion (WP:BK) instead of (WP:MUSIC)
p5133
aatRp5134
ag2
((lp5135
(lp5136
Vrevid
p5137
aI62439462
aa(lp5138
Vparentid
p5139
aI62310228
aa(lp5140
Vuser
p5141
aVEluchil404
p5142
aa(lp5143
Vtimestamp
p5144
ag13
((I2006
I7
I6
I21
I8
I44
I3
I187
I-1
t(dtRp5145
aa(lp5146
Vcomment
p5147
aVadded note on country size from WP:MUSIC
p5148
aatRp5149
ag2
((lp5150
(lp5151
Vrevid
p5152
aI62310228
aa(lp5153
Vparentid
p5154
aI62263101
aa(lp5155
Vminor
p5156
aV
aa(lp5157
Vuser
p5158
aVEluchil404
p5159
aa(lp5160
Vtimestamp
p5161
ag13
((I2006
I7
I6
I4
I12
I28
I3
I187
I-1
t(dtRp5162
aa(lp5163
Vcomment
p5164
aVfix link
p5165
aatRp5166
ag2
((lp5167
(lp5168
Vrevid
p5169
aI62263101
aa(lp5170
Vparentid
p5171
aI0
aa(lp5172
Vuser
p5173
aVEluchil404
p5174
aa(lp5175
Vtimestamp
p5176
ag13
((I2006
I7
I5
I22
I12
I13
I2
I186
I-1
t(dtRp5177
aa(lp5178
Vcomment
p5179
aVWrote essay discussing notability of films
p5180
aatRp5181
a.