(lp1
ccollections
OrderedDict
p2
((lp3
(lp4
Vrevid
p5
aI928198342
aa(lp6
Vparentid
p7
aI928198176
aa(lp8
Vminor
p9
aV
aa(lp10
Vuser
p11
aVBsherr
p12
aa(lp13
Vtimestamp
p14
actime
struct_time
p15
((I2019
I11
I27
I13
I6
I44
I2
I331
I-1
t(dtRp16
aa(lp17
Vcomment
p18
aV/* top */ removing extra brace
p19
aatRp20
ag2
((lp21
(lp22
Vrevid
p23
aI928198176
aa(lp24
Vparentid
p25
aI928198002
aa(lp26
Vminor
p27
aV
aa(lp28
Vuser
p29
aVBsherr
p30
aa(lp31
Vtimestamp
p32
ag15
((I2019
I11
I27
I13
I5
I51
I2
I331
I-1
t(dtRp33
aa(lp34
Vcomment
p35
aV/* People notable for only one event */ replacing shortcuts with full page names
p36
aatRp37
ag2
((lp38
(lp39
Vrevid
p40
aI928198002
aa(lp41
Vparentid
p42
aI928197528
aa(lp43
Vminor
p44
aV
aa(lp45
Vuser
p46
aVBsherr
p47
aa(lp48
Vtimestamp
p49
ag15
((I2019
I11
I27
I13
I4
I19
I2
I331
I-1
t(dtRp50
aa(lp51
Vcomment
p52
aV/* Alternatives to deletion */ replacing shortcut with full page name, bypassing redirects
p53
aatRp54
ag2
((lp55
(lp56
Vrevid
p57
aI928197528
aa(lp58
Vparentid
p59
aI928155035
aa(lp60
Vminor
p61
aV
aa(lp62
Vuser
p63
aVBsherr
p64
aa(lp65
Vtimestamp
p66
ag15
((I2019
I11
I27
I12
I59
I50
I2
I331
I-1
t(dtRp67
aa(lp68
Vcomment
p69
aV/* top */ improving hatnote template, code efficiency, emphasis per [[MOS:EMPHASIS]]
p70
aatRp71
ag2
((lp72
(lp73
Vrevid
p74
aI928155035
aa(lp75
Vparentid
p76
aI928154940
aa(lp77
Vminor
p78
aV
aa(lp79
Vuser
p80
aVBsherr
p81
aa(lp82
Vtimestamp
p83
ag15
((I2019
I11
I27
I4
I57
I1
I2
I331
I-1
t(dtRp84
aa(lp85
Vcomment
p86
aV/* Breaking news */ replacing shortcut with full page name
p87
aatRp88
ag2
((lp89
(lp90
Vrevid
p91
aI928154940
aa(lp92
Vparentid
p93
aI928154693
aa(lp94
Vminor
p95
aV
aa(lp96
Vuser
p97
aVBsherr
p98
aa(lp99
Vtimestamp
p100
ag15
((I2019
I11
I27
I4
I55
I35
I2
I331
I-1
t(dtRp101
aa(lp102
Vcomment
p103
aV/* Sensationalism */ bypassing template redirect, replacing shortcut with full page name
p104
aatRp105
ag2
((lp106
(lp107
Vrevid
p108
aI928154693
aa(lp109
Vparentid
p110
aI914797200
aa(lp111
Vuser
p112
aVBsherr
p113
aa(lp114
Vtimestamp
p115
ag15
((I2019
I11
I27
I4
I52
I2
I2
I331
I-1
t(dtRp116
aa(lp117
Vcomment
p118
aV/* Routine coverage */ improving hatnote
p119
aatRp120
ag2
((lp121
(lp122
Vrevid
p123
aI914797200
aa(lp124
Vparentid
p125
aI880178777
aa(lp126
Vuser
p127
aVNosebagbear
p128
aa(lp129
Vtimestamp
p130
ag15
((I2019
I9
I9
I12
I32
I5
I0
I252
I-1
t(dtRp131
aa(lp132
Vcomment
p133
aVBold addition of event co-ordinator hatnote
p134
aatRp135
ag2
((lp136
(lp137
Vrevid
p138
aI880178777
aa(lp139
Vparentid
p140
aI880156921
aa(lp141
Vuser
p142
aVStaszek Lem
p143
aa(lp144
Vtimestamp
p145
ag15
((I2019
I1
I25
I21
I22
I9
I4
I25
I-1
t(dtRp146
aa(lp147
Vcomment
p148
aV/* Don't rush to delete articles */
p149
aatRp150
ag2
((lp151
(lp152
Vrevid
p153
aI880156921
aa(lp154
Vparentid
p155
aI874678109
aa(lp156
Vuser
p157
aVPigsonthewing
p158
aa(lp159
Vtimestamp
p160
ag15
((I2019
I1
I25
I18
I33
I21
I4
I25
I-1
t(dtRp161
aa(lp162
Vcomment
p163
aV/* Don't rush to create articles */ June 2009 Washington Metro train collision
p164
aatRp165
ag2
((lp166
(lp167
Vrevid
p168
aI874678109
aa(lp169
Vparentid
p170
aI866691178
aa(lp171
Vuser
p172
aVStaszek Lem
p173
aa(lp174
Vtimestamp
p175
ag15
((I2018
I12
I20
I21
I35
I38
I3
I354
I-1
t(dtRp176
aa(lp177
Vcomment
p178
aV/* top */ nutshell expanded to match the content
p179
aatRp180
ag2
((lp181
(lp182
Vrevid
p183
aI866691178
aa(lp184
Vparentid
p185
aI866518377
aa(lp186
Vuser
p187
aVBarbadosKen
p188
aa(lp189
Vtimestamp
p190
ag15
((I2018
I10
I31
I22
I38
I8
I2
I304
I-1
t(dtRp191
aa(lp192
Vcomment
p193
aV/* Depth of coverage */ use a different form of  the template {{redirect}} since the disambiguation page refers to only one other possibility.
p194
aatRp195
ag2
((lp196
(lp197
Vrevid
p198
aI866518377
aa(lp199
Vparentid
p200
aI866022854
aa(lp201
Vuser
p202
aVBarbadosKen
p203
aa(lp204
Vtimestamp
p205
ag15
((I2018
I10
I30
I20
I45
I11
I1
I303
I-1
t(dtRp206
aa(lp207
Vcomment
p208
aV/* Depth of coverage */ Add {{redirect}} template
p209
aatRp210
ag2
((lp211
(lp212
Vrevid
p213
aI866022854
aa(lp214
Vparentid
p215
aI866022577
aa(lp216
Vminor
p217
aV
aa(lp218
Vuser
p219
aVBsherr
p220
aa(lp221
Vtimestamp
p222
ag15
((I2018
I10
I27
I19
I26
I11
I5
I300
I-1
t(dtRp223
aa(lp224
Vcomment
p225
aV/* Criminal acts */ expanding shortcut
p226
aatRp227
ag2
((lp228
(lp229
Vrevid
p230
aI866022577
aa(lp231
Vparentid
p232
aI863833852
aa(lp233
Vminor
p234
aV
aa(lp235
Vuser
p236
aVBsherr
p237
aa(lp238
Vtimestamp
p239
ag15
((I2018
I10
I27
I19
I23
I49
I5
I300
I-1
t(dtRp240
aa(lp241
Vcomment
p242
aV/* Criminal acts */ adding comment per [[Wikipedia:Manual of Style/Linking#Broken section links]]
p243
aatRp244
ag2
((lp245
(lp246
Vrevid
p247
aI863833852
aa(lp248
Vparentid
p249
aI863833812
aa(lp250
Vuser
p251
aVDavidgoodheart
p252
aa(lp253
Vtimestamp
p254
ag15
((I2018
I10
I13
I10
I51
I52
I5
I286
I-1
t(dtRp255
aa(lp256
Vcomment
p257
aV/* Inclusion criteria */
p258
aatRp259
ag2
((lp260
(lp261
Vrevid
p262
aI863833812
aa(lp263
Vparentid
p264
aI851326630
aa(lp265
Vuser
p266
aVDavidgoodheart
p267
aa(lp268
Vtimestamp
p269
ag15
((I2018
I10
I13
I10
I51
I19
I5
I286
I-1
t(dtRp270
aa(lp271
Vcomment
p272
aV/* Inclusion criteria */
p273
aatRp274
ag2
((lp275
(lp276
Vrevid
p277
aI851326630
aa(lp278
Vparentid
p279
aI841323068
aa(lp280
Vuser
p281
aVMrX
p282
aa(lp283
Vtimestamp
p284
ag15
((I2018
I7
I21
I14
I49
I37
I5
I202
I-1
t(dtRp285
aa(lp286
Vcomment
p287
aV/* The coverage */ +{{clear}}
p288
aatRp289
ag2
((lp290
(lp291
Vrevid
p292
aI841323068
aa(lp293
Vparentid
p294
aI837603014
aa(lp295
Vuser
p296
aVMoxy
p297
aa(lp298
Vtimestamp
p299
ag15
((I2018
I5
I15
I4
I5
I40
I1
I135
I-1
t(dtRp300
aa(lp301
Vcomment
p302
aV/* Routine coverage */ ce
p303
aatRp304
ag2
((lp305
(lp306
Vrevid
p307
aI837603014
aa(lp308
Vparentid
p309
aI837602877
aa(lp310
Vuser
p311
aVRhododendrites
p312
aa(lp313
Vtimestamp
p314
ag15
((I2018
I4
I21
I21
I26
I59
I5
I111
I-1
t(dtRp315
aa(lp316
Vcomment
p317
aV/* Don't rush to create articles */ actually, derp, both start with "don't rush" using this one instead
p318
aatRp319
ag2
((lp320
(lp321
Vrevid
p322
aI837602877
aa(lp323
Vparentid
p324
aI832802395
aa(lp325
Vuser
p326
aVRhododendrites
p327
aa(lp328
Vtimestamp
p329
ag15
((I2018
I4
I21
I21
I26
I4
I5
I111
I-1
t(dtRp330
aa(lp331
Vcomment
p332
aV/* Don't rush to create articles */ given how frequently this section comes up when WP:DELAY comes up, a shortcut seems sensible
p333
aatRp334
ag2
((lp335
(lp336
Vrevid
p337
aI832802395
aa(lp338
Vparentid
p339
aI831013913
aa(lp340
Vuser
p341
aVLuckyLouie
p342
aa(lp343
Vtimestamp
p344
ag15
((I2018
I3
I28
I2
I21
I14
I2
I87
I-1
t(dtRp345
aa(lp346
Vcomment
p347
aV/* Sensationalism */ More explicit shortcut
p348
aatRp349
ag2
((lp350
(lp351
Vrevid
p352
aI831013913
aa(lp353
Vparentid
p354
aI830896336
aa(lp355
Vuser
p356
aVThinker78
p357
aa(lp358
Vtimestamp
p359
ag15
((I2018
I3
I18
I6
I25
I6
I6
I77
I-1
t(dtRp360
aa(lp361
Vcomment
p362
aVUndid revision 830896336 by [[Special:Contributions/Derekzaa|Derekzaa]] ([[User talk:Derekzaa|talk]]) comma doesn't seem out of place (brief, often light and amusing, stories)
p363
aatRp364
ag2
((lp365
(lp366
Vrevid
p367
aI830896336
aa(lp368
Vparentid
p369
aI826170936
aa(lp370
Vminor
p371
aV
aa(lp372
Vuser
p373
aVDerekzaa
p374
aa(lp375
Vtimestamp
p376
ag15
((I2018
I3
I17
I15
I12
I2
I5
I76
I-1
t(dtRp377
aa(lp378
Vcomment
p379
aVOut-of-place comma removed.
p380
aatRp381
ag2
((lp382
(lp383
Vrevid
p384
aI826170936
aa(lp385
Vparentid
p386
aI823922332
aa(lp387
Vuser
p388
aV\u0da2\u0db4\u0dc3
p389
aa(lp390
Vtimestamp
p391
ag15
((I2018
I2
I17
I17
I3
I17
I5
I48
I-1
t(dtRp392
aa(lp393
Vcomment
p394
aVUndid revision 822158501 by [[Special:Contributions/Thinker78|Thinker78]] ([[User talk:Thinker78|talk]]) I think the RfC outcome is pretty clear.
p395
aatRp396
ag2
((lp397
(lp398
Vrevid
p399
aI823922332
aa(lp400
Vparentid
p401
aI822158501
aa(lp402
Vuser
p403
aVHydronium Hydroxide
p404
aa(lp405
Vtimestamp
p406
ag15
((I2018
I2
I4
I6
I37
I55
I6
I35
I-1
t(dtRp407
aa(lp408
Vcomment
p409
aV/* Inclusion criteria */ number EVENTCRIT types to assist AFD
p410
aatRp411
ag2
((lp412
(lp413
Vrevid
p414
aI822158501
aa(lp415
Vparentid
p416
aI822103521
aa(lp417
Vuser
p418
aVThinker78
p419
aa(lp420
Vtimestamp
p421
ag15
((I2018
I1
I24
I19
I7
I48
I2
I24
I-1
t(dtRp422
aa(lp423
Vcomment
p424
aVUndid revision 822103521 by [[Special:Contributions/\u0da2\u0db4\u0dc3|\u0da2\u0db4\u0dc3]] ([[User talk:\u0da2\u0db4\u0dc3|talk]]) rv per [[WP:WPEDIT]]. I'm objecting to the change.
p425
aatRp426
ag2
((lp427
(lp428
Vrevid
p429
aI822103521
aa(lp430
Vparentid
p431
aI821549661
aa(lp432
Vuser
p433
aV\u0da2\u0db4\u0dc3
p434
aa(lp435
Vtimestamp
p436
ag15
((I2018
I1
I24
I12
I1
I58
I2
I24
I-1
t(dtRp437
aa(lp438
Vcomment
p439
aVSee talk. Objector has been active elsewhere on Wikipedia since but has not [[WP:SILENCE|responded]] to requests for clarification on they disagree with this description of common practice.
p440
aatRp441
ag2
((lp442
(lp443
Vrevid
p444
aI821549661
aa(lp445
Vparentid
p446
aI821224570
aa(lp447
Vuser
p448
aVThinker78
p449
aa(lp450
Vtimestamp
p451
ag15
((I2018
I1
I21
I4
I53
I24
I6
I21
I-1
t(dtRp452
aa(lp453
Vcomment
p454
aVUndid revision 821224570 by [[Special:Contributions/\u0da2\u0db4\u0dc3|\u0da2\u0db4\u0dc3]] ([[User talk:\u0da2\u0db4\u0dc3|talk]]) guideline is primarily for events as its title implies, there are other guidelines for people.
p455
aatRp456
ag2
((lp457
(lp458
Vrevid
p459
aI821224570
aa(lp460
Vparentid
p461
aI821180474
aa(lp462
Vuser
p463
aV\u0da2\u0db4\u0dc3
p464
aa(lp465
Vtimestamp
p466
ag15
((I2018
I1
I19
I3
I46
I52
I4
I19
I-1
t(dtRp467
aa(lp468
Vcomment
p469
aV/* Sensationalism */ because some newbies are ridiculous
p470
aatRp471
ag2
((lp472
(lp473
Vrevid
p474
aI821180474
aa(lp475
Vparentid
p476
aI803615550
aa(lp477
Vuser
p478
aVThinker78
p479
aa(lp480
Vtimestamp
p481
ag15
((I2018
I1
I18
I21
I58
I3
I3
I18
I-1
t(dtRp482
aa(lp483
Vcomment
p484
aV/* Sensationalism */ added policy link
p485
aatRp486
ag2
((lp487
(lp488
Vrevid
p489
aI803615550
aa(lp490
Vparentid
p491
aI785537055
aa(lp492
Vuser
p493
aVFuzheado
p494
aa(lp495
Vtimestamp
p496
ag15
((I2017
I10
I3
I16
I6
I15
I1
I276
I-1
t(dtRp497
aa(lp498
Vcomment
p499
aV/* Wikinews */ - rewording this, as this has not really been the case for a long time, and it's not clear there was consensus in the first place for the original wording
p500
aatRp501
ag2
((lp502
(lp503
Vrevid
p504
aI785537055
aa(lp505
Vparentid
p506
aI785537016
aa(lp507
Vminor
p508
aV
aa(lp509
Vuser
p510
aVC.Fred
p511
aa(lp512
Vtimestamp
p513
ag15
((I2017
I6
I14
I2
I33
I42
I2
I165
I-1
t(dtRp514
aa(lp515
Vcomment
p516
aVReverted edits by [[Special:Contribs/Gippi yadav722|Gippi yadav722]] ([[User talk:Gippi yadav722|talk]]) to last version by Jabberwoch
p517
aatRp518
ag2
((lp519
(lp520
Vrevid
p521
aI785537016
aa(lp522
Vparentid
p523
aI783486529
aa(lp524
Vminor
p525
aV
aa(lp526
Vuser
p527
aVGippi yadav722
p528
aa(lp529
Vtimestamp
p530
ag15
((I2017
I6
I14
I2
I33
I24
I2
I165
I-1
t(dtRp531
aa(lp532
Vcomment
p533
aV/* Inclusion criteria */
p534
aatRp535
ag2
((lp536
(lp537
Vrevid
p538
aI783486529
aa(lp539
Vparentid
p540
aI782416836
aa(lp541
Vuser
p542
aVJabberwoch
p543
aa(lp544
Vtimestamp
p545
ag15
((I2017
I6
I2
I16
I42
I8
I4
I153
I-1
t(dtRp546
aa(lp547
Vcomment
p548
aV/* Routine coverage */ -"pre-"scheduled events Spelling/grammar correction
p549
aatRp550
ag2
((lp551
(lp552
Vrevid
p553
aI782416836
aa(lp554
Vparentid
p555
aI782416468
aa(lp556
Vminor
p557
aV
aa(lp558
Vuser
p559
aVShellwood
p560
aa(lp561
Vtimestamp
p562
ag15
((I2017
I5
I26
I19
I27
I14
I4
I146
I-1
t(dtRp563
aa(lp564
Vcomment
p565
aVReverted edits by [[Special:Contributions/101.50.83.2|101.50.83.2]] ([[User talk:101.50.83.2|talk]]) ([[WP:HG|HG]]) (3.1.22)
p566
aatRp567
ag2
((lp568
(lp569
Vrevid
p570
aI782416468
aa(lp571
Vparentid
p572
aI782416349
aa(lp573
Vuser
p574
aV101.50.83.2
p575
aa(lp576
Vanon
p577
aV
aa(lp578
Vtimestamp
p579
ag15
((I2017
I5
I26
I19
I24
I30
I4
I146
I-1
t(dtRp580
aa(lp581
Vcomment
p582
aV/* The coverage */
p583
aatRp584
ag2
((lp585
(lp586
Vrevid
p587
aI782416349
aa(lp588
Vparentid
p589
aI776412631
aa(lp590
Vuser
p591
aV101.50.83.2
p592
aa(lp593
Vanon
p594
aV
aa(lp595
Vtimestamp
p596
ag15
((I2017
I5
I26
I19
I23
I34
I4
I146
I-1
t(dtRp597
aa(lp598
Vcomment
p599
aV/* The event */
p600
aatRp601
ag2
((lp602
(lp603
Vrevid
p604
aI776412631
aa(lp605
Vparentid
p606
aI757276828
aa(lp607
Vuser
p608
aVMr. Guye
p609
aa(lp610
Vtimestamp
p611
ag15
((I2017
I4
I20
I21
I1
I20
I3
I110
I-1
t(dtRp612
aa(lp613
Vcomment
p614
aV/* Routine coverage */ I have turned "opposition essay" notice, which was formatted to resemble a [[WP:HATNOTE|hatnote]], into an actual hatnote using {{[[Template:Hatnote|Hatnote]]}}
p615
aatRp616
ag2
((lp617
(lp618
Vrevid
p619
aI757276828
aa(lp620
Vparentid
p621
aI756100050
aa(lp622
Vuser
p623
aVBDD
p624
aa(lp625
Vtimestamp
p626
ag15
((I2016
I12
I29
I20
I6
I16
I3
I364
I-1
t(dtRp627
aa(lp628
Vcomment
p629
aVremoving hatnote
p630
aatRp631
ag2
((lp632
(lp633
Vrevid
p634
aI756100050
aa(lp635
Vparentid
p636
aI755366320
aa(lp637
Vuser
p638
aVSeed of Cosmo 15087
p639
aa(lp640
Vtimestamp
p641
ag15
((I2016
I12
I22
I0
I32
I7
I3
I357
I-1
t(dtRp642
aa(lp643
Vcomment
p644
aV/* The coverage */ Adding the shortcut [[WP:COVERAGE]]
p645
aatRp646
ag2
((lp647
(lp648
Vrevid
p649
aI755366320
aa(lp650
Vparentid
p651
aI755366287
aa(lp652
Vminor
p653
aV
aa(lp654
Vuser
p655
aVHeadbomb
p656
aa(lp657
Vtimestamp
p658
ag15
((I2016
I12
I17
I16
I13
I4
I5
I352
I-1
t(dtRp659
aa(lp660
Vcomment
p661
aV/* Routine coverage */ 1
p662
aatRp663
ag2
((lp664
(lp665
Vrevid
p666
aI755366287
aa(lp667
Vparentid
p668
aI755366176
aa(lp669
Vuser
p670
aVHeadbomb
p671
aa(lp672
Vtimestamp
p673
ag15
((I2016
I12
I17
I16
I12
I48
I5
I352
I-1
t(dtRp674
aa(lp675
Vcomment
p676
aV/* Depth of coverage */ 3 309-327
p677
aatRp678
ag2
((lp679
(lp680
Vrevid
p681
aI755366176
aa(lp682
Vparentid
p683
aI755365440
aa(lp684
Vuser
p685
aVHeadbomb
p686
aa(lp687
Vtimestamp
p688
ag15
((I2016
I12
I17
I16
I11
I59
I5
I352
I-1
t(dtRp689
aa(lp690
Vcomment
p691
aV/* Routine coverage */ 2094279
p692
aatRp693
ag2
((lp694
(lp695
Vrevid
p696
aI755365440
aa(lp697
Vparentid
p698
aI755364981
aa(lp699
Vuser
p700
aVHeadbomb
p701
aa(lp702
Vtimestamp
p703
ag15
((I2016
I12
I17
I16
I6
I44
I5
I352
I-1
t(dtRp704
aa(lp705
Vcomment
p706
aV/* Depth of coverage */ 10.1207/s15506878jobem4703_1
p707
aatRp708
ag2
((lp709
(lp710
Vrevid
p711
aI755364981
aa(lp712
Vparentid
p713
aI755364924
aa(lp714
Vminor
p715
aV
aa(lp716
Vuser
p717
aVCitation bot
p718
aa(lp719
Vtimestamp
p720
ag15
((I2016
I12
I17
I16
I3
I47
I5
I352
I-1
t(dtRp721
aa(lp722
Vcomment
p723
aVAdd: isbn. You can [[WP:UCB|use this bot]] yourself. [[WP:DBUG|Report bugs here]].
p724
aatRp725
ag2
((lp726
(lp727
Vrevid
p728
aI755364924
aa(lp729
Vparentid
p730
aI755364717
aa(lp731
Vuser
p732
aVHeadbomb
p733
aa(lp734
Vtimestamp
p735
ag15
((I2016
I12
I17
I16
I3
I33
I5
I352
I-1
t(dtRp736
aa(lp737
Vcomment
p738
aV/* Depth of coverage */ ce
p739
aatRp740
ag2
((lp741
(lp742
Vrevid
p743
aI755364717
aa(lp744
Vparentid
p745
aI738357280
aa(lp746
Vuser
p747
aVHeadbomb
p748
aa(lp749
Vtimestamp
p750
ag15
((I2016
I12
I17
I16
I2
I21
I5
I352
I-1
t(dtRp751
aa(lp752
Vcomment
p753
aV/* Routine coverage */ ce
p754
aatRp755
ag2
((lp756
(lp757
Vrevid
p758
aI738357280
aa(lp759
Vparentid
p760
aI730255039
aa(lp761
Vuser
p762
aVPaulmcdonald
p763
aa(lp764
Vtimestamp
p765
ag15
((I2016
I9
I8
I13
I34
I22
I3
I252
I-1
t(dtRp766
aa(lp767
Vcomment
p768
aV/* Routine coverage */
p769
aatRp770
ag2
((lp771
(lp772
Vrevid
p773
aI730255039
aa(lp774
Vparentid
p775
aI729653515
aa(lp776
Vuser
p777
aVBolter21
p778
aa(lp779
Vtimestamp
p780
ag15
((I2016
I7
I17
I20
I28
I6
I6
I199
I-1
t(dtRp781
aa(lp782
Vcomment
p783
aVUndid revision 729653515 by [[Special:Contributions/Bachcell|Bachcell]] ([[User talk:Bachcell|talk]]) You can't just change the standards of Wikipedia with no discussions
p784
aatRp785
ag2
((lp786
(lp787
Vrevid
p788
aI729653515
aa(lp789
Vparentid
p790
aI726591756
aa(lp791
Vuser
p792
aVBachcell
p793
aa(lp794
Vtimestamp
p795
ag15
((I2016
I7
I13
I17
I43
I40
I2
I195
I-1
t(dtRp796
aa(lp797
Vcomment
p798
aV/* Lasting effects */  not criterion for deletion
p799
aatRp800
ag2
((lp801
(lp802
Vrevid
p803
aI726591756
aa(lp804
Vparentid
p805
aI724339463
aa(lp806
Vuser
p807
aVAtlantic306
p808
aa(lp809
Vtimestamp
p810
ag15
((I2016
I6
I23
I3
I46
I19
I3
I175
I-1
t(dtRp811
aa(lp812
Vcomment
p813
aV/* Routine coverage */ A long obituary in a major broadsheet such as the U.K's Guardian, Daily Telegraph or Times is not routine.
p814
aatRp815
ag2
((lp816
(lp817
Vrevid
p818
aI724339463
aa(lp819
Vparentid
p820
aI724337787
aa(lp821
Vminor
p822
aV
aa(lp823
Vuser
p824
aVThe Wordsmith
p825
aa(lp826
Vtimestamp
p827
ag15
((I2016
I6
I8
I16
I15
I29
I2
I160
I-1
t(dtRp828
aa(lp829
Vcomment
p830
aVReverted edits by [[Special:Contribs/105.172.25.122|105.172.25.122]] ([[User talk:105.172.25.122|talk]]) to last version by Brianga
p831
aatRp832
ag2
((lp833
(lp834
Vrevid
p835
aI724337787
aa(lp836
Vparentid
p837
aI717439905
aa(lp838
Vuser
p839
aV105.172.25.122
p840
aa(lp841
Vanon
p842
aV
aa(lp843
Vtimestamp
p844
ag15
((I2016
I6
I8
I16
I3
I2
I2
I160
I-1
t(dtRp845
aa(lp846
Vcomment
p847
aV/* Alternatives to deletion */
p848
aatRp849
ag2
((lp850
(lp851
Vrevid
p852
aI717439905
aa(lp853
Vparentid
p854
aI717437201
aa(lp855
Vminor
p856
aV
aa(lp857
Vuser
p858
aVBrianga
p859
aa(lp860
Vtimestamp
p861
ag15
((I2016
I4
I27
I18
I29
I22
I2
I118
I-1
t(dtRp862
aa(lp863
Vcomment
p864
aVReverted 1 edit by [[Special:Contributions/37.238.164.40|37.238.164.40]] ([[User talk:37.238.164.40|talk]]) to last revision by Fences and windows. ([[WP:TW|TW]])
p865
aatRp866
ag2
((lp867
(lp868
Vrevid
p869
aI717437201
aa(lp870
Vparentid
p871
aI690841647
aa(lp872
Vuser
p873
aV37.238.164.40
p874
aa(lp875
Vanon
p876
aV
aa(lp877
Vtimestamp
p878
ag15
((I2016
I4
I27
I18
I9
I26
I2
I118
I-1
t(dtRp879
aa(lp880
Vcomment
p881
aV/* Don't rush to create articles */
p882
aatRp883
ag2
((lp884
(lp885
Vrevid
p886
aI690841647
aa(lp887
Vparentid
p888
aI689029064
aa(lp889
Vuser
p890
aVFences and windows
p891
aa(lp892
Vtimestamp
p893
ag15
((I2015
I11
I16
I0
I56
I18
I0
I320
I-1
t(dtRp894
aa(lp895
Vcomment
p896
aV/* See also */ Wikipedia:Reactions to... articles
p897
aatRp898
ag2
((lp899
(lp900
Vrevid
p901
aI689029064
aa(lp902
Vparentid
p903
aI685839568
aa(lp904
Vuser
p905
aVWbm1058
p906
aa(lp907
Vtimestamp
p908
ag15
((I2015
I11
I4
I14
I26
I21
I2
I308
I-1
t(dtRp909
aa(lp910
Vcomment
p911
aV/* Criminal acts */ add another shortcut
p912
aatRp913
ag2
((lp914
(lp915
Vrevid
p916
aI685839568
aa(lp917
Vparentid
p918
aI685839115
aa(lp919
Vminor
p920
aV
aa(lp921
Vuser
p922
aVJohnuniq
p923
aa(lp924
Vtimestamp
p925
ag15
((I2015
I10
I15
I9
I0
I11
I3
I288
I-1
t(dtRp926
aa(lp927
Vcomment
p928
aVReverted edits by [[Special:Contribs/Svsharma04|Svsharma04]] ([[User talk:Svsharma04|talk]]) to last version by Sm8900
p929
aatRp930
ag2
((lp931
(lp932
Vrevid
p933
aI685839115
aa(lp934
Vparentid
p935
aI685395580
aa(lp936
Vminor
p937
aV
aa(lp938
Vuser
p939
aVSvsharma04
p940
aa(lp941
Vtimestamp
p942
ag15
((I2015
I10
I15
I8
I52
I54
I3
I288
I-1
t(dtRp943
aa(lp944
Vcomment
p945
aVnAvRaTrI SpEcIaL 919988310846 BLACK MAGIC SPECIALIST baba ji indianAvRaTrI SpEcIaL 919988310846 BLACK MAGIC SPECIALIST baba ji indianAvRaTrI SpEcIaL 919988310846 BLACK MAGIC SPECIALIST baba ji indianAvRaTrI SpEcIaL 919988310846 BLACK MAGIC SPECIALIST baba
p946
aatRp947
ag2
((lp948
(lp949
Vrevid
p950
aI685395580
aa(lp951
Vparentid
p952
aI685395545
aa(lp953
Vuser
p954
aVSm8900
p955
aa(lp956
Vtimestamp
p957
ag15
((I2015
I10
I12
I16
I36
I11
I0
I285
I-1
t(dtRp958
aa(lp959
Vcomment
p960
aV/* Inclusion criteria */
p961
aatRp962
ag2
((lp963
(lp964
Vrevid
p965
aI685395545
aa(lp966
Vparentid
p967
aI685395518
aa(lp968
Vuser
p969
aVSm8900
p970
aa(lp971
Vtimestamp
p972
ag15
((I2015
I10
I12
I16
I35
I55
I0
I285
I-1
t(dtRp973
aa(lp974
Vcomment
p975
aV/* Inclusion criteria */
p976
aatRp977
ag2
((lp978
(lp979
Vrevid
p980
aI685395518
aa(lp981
Vparentid
p982
aI675438941
aa(lp983
Vuser
p984
aVSm8900
p985
aa(lp986
Vtimestamp
p987
ag15
((I2015
I10
I12
I16
I35
I45
I0
I285
I-1
t(dtRp988
aa(lp989
Vcomment
p990
aV/* Inclusion criteria */
p991
aatRp992
ag2
((lp993
(lp994
Vrevid
p995
aI675438941
aa(lp996
Vparentid
p997
aI675438871
aa(lp998
Vuser
p999
aVStudentaccountantghost4
p1000
aa(lp1001
Vtimestamp
p1002
ag15
((I2015
I8
I10
I16
I7
I12
I0
I222
I-1
t(dtRp1003
aa(lp1004
Vcomment
p1005
aVUndid revision 675438871 by [[Special:Contributions/59.88.168.139|59.88.168.139]] ([[User talk:59.88.168.139|talk]]) rv vandalism
p1006
aatRp1007
ag2
((lp1008
(lp1009
Vrevid
p1010
aI675438871
aa(lp1011
Vparentid
p1012
aI675093128
aa(lp1013
Vuser
p1014
aV59.88.168.139
p1015
aa(lp1016
Vanon
p1017
aV
aa(lp1018
Vtimestamp
p1019
ag15
((I2015
I8
I10
I16
I6
I34
I0
I222
I-1
t(dtRp1020
aa(lp1021
Vcomment
p1022
aV/* {{anchor|Persistence of coverage}}Duration of coverage */
p1023
aatRp1024
ag2
((lp1025
(lp1026
Vrevid
p1027
aI675093128
aa(lp1028
Vparentid
p1029
aI671160667
aa(lp1030
Vuser
p1031
aVSammy1339
p1032
aa(lp1033
Vtimestamp
p1034
ag15
((I2015
I8
I8
I5
I39
I35
I5
I220
I-1
t(dtRp1035
aa(lp1036
Vcomment
p1037
aV/* Routine coverage */  removed recent addition - please get consensus for this
p1038
aatRp1039
ag2
((lp1040
(lp1041
Vrevid
p1042
aI671160667
aa(lp1043
Vparentid
p1044
aI667257741
aa(lp1045
Vuser
p1046
aVBagumba
p1047
aa(lp1048
Vtimestamp
p1049
ag15
((I2015
I7
I12
I21
I31
I34
I6
I193
I-1
t(dtRp1050
aa(lp1051
Vcomment
p1052
aV/* Breaking news */ +hatnote
p1053
aatRp1054
ag2
((lp1055
(lp1056
Vrevid
p1057
aI667257741
aa(lp1058
Vparentid
p1059
aI667143963
aa(lp1060
Vuser
p1061
aVVQuakr
p1062
aa(lp1063
Vtimestamp
p1064
ag15
((I2015
I6
I16
I21
I37
I4
I1
I167
I-1
t(dtRp1065
aa(lp1066
Vcomment
p1067
aVReverted to revision 662932385 by [[Special:Contributions/Bluerasberry|Bluerasberry]] ([[User talk:Bluerasberry|talk]]): [[WP:NOTINHERITED]]. ([[WP:TW|TW]])
p1068
aatRp1069
ag2
((lp1070
(lp1071
Vrevid
p1072
aI667143963
aa(lp1073
Vparentid
p1074
aI662932385
aa(lp1075
Vuser
p1076
aVKendrick7
p1077
aa(lp1078
Vtimestamp
p1079
ag15
((I2015
I6
I16
I3
I51
I3
I1
I167
I-1
t(dtRp1080
aa(lp1081
Vcomment
p1082
aV/* Lasting effects */ per talk, since there was no objection
p1083
aatRp1084
ag2
((lp1085
(lp1086
Vrevid
p1087
aI662932385
aa(lp1088
Vparentid
p1089
aI647914945
aa(lp1090
Vuser
p1091
aVBluerasberry
p1092
aa(lp1093
Vtimestamp
p1094
ag15
((I2015
I5
I18
I13
I18
I34
I0
I138
I-1
t(dtRp1095
aa(lp1096
Vcomment
p1097
aV/* Routine coverage */ add link to precedent...
p1098
aatRp1099
ag2
((lp1100
(lp1101
Vrevid
p1102
aI647914945
aa(lp1103
Vparentid
p1104
aI640104392
aa(lp1105
Vminor
p1106
aV
aa(lp1107
Vuser
p1108
aVBagumba
p1109
aa(lp1110
Vtimestamp
p1111
ag15
((I2015
I2
I19
I18
I54
I18
I3
I50
I-1
t(dtRp1112
aa(lp1113
Vcomment
p1114
aV/* Breaking news */ reduce whitespace
p1115
aatRp1116
ag2
((lp1117
(lp1118
Vrevid
p1119
aI640104392
aa(lp1120
Vparentid
p1121
aI639366969
aa(lp1122
Vuser
p1123
aVMasem
p1124
aa(lp1125
Vtimestamp
p1126
ag15
((I2014
I12
I29
I15
I53
I5
I0
I363
I-1
t(dtRp1127
aa(lp1128
Vcomment
p1129
aV/* Depth of coverage */ better wikilink for this part
p1130
aatRp1131
ag2
((lp1132
(lp1133
Vrevid
p1134
aI639366969
aa(lp1135
Vparentid
p1136
aI638821639
aa(lp1137
Vminor
p1138
aV
aa(lp1139
Vuser
p1140
aVSporkBot
p1141
aa(lp1142
Vtimestamp
p1143
ag15
((I2014
I12
I23
I18
I10
I39
I1
I357
I-1
t(dtRp1144
aa(lp1145
Vcomment
p1146
aVRepair [[:Category:Pages using duplicate arguments in template calls|duplicate template args]]
p1147
aatRp1148
ag2
((lp1149
(lp1150
Vrevid
p1151
aI638821639
aa(lp1152
Vparentid
p1153
aI634495542
aa(lp1154
Vuser
p1155
aVBagumba
p1156
aa(lp1157
Vtimestamp
p1158
ag15
((I2014
I12
I19
I20
I37
I14
I4
I353
I-1
t(dtRp1159
aa(lp1160
Vcomment
p1161
aV/* Breaking news */ +further info
p1162
aatRp1163
ag2
((lp1164
(lp1165
Vrevid
p1166
aI634495542
aa(lp1167
Vparentid
p1168
aI625668555
aa(lp1169
Vminor
p1170
aV
aa(lp1171
Vuser
p1172
aVYiFeiBot
p1173
aa(lp1174
Vtimestamp
p1175
ag15
((I2014
I11
I19
I6
I21
I5
I2
I323
I-1
t(dtRp1176
aa(lp1177
Vcomment
p1178
aVBot: Migrating interwiki links, now provided by [[d:|Wikidata]] on [[d:q7236489]]
p1179
aatRp1180
ag2
((lp1181
(lp1182
Vrevid
p1183
aI625668555
aa(lp1184
Vparentid
p1185
aI623290923
aa(lp1186
Vminor
p1187
aV
aa(lp1188
Vuser
p1189
aVJonesey95
p1190
aa(lp1191
Vtimestamp
p1192
ag15
((I2014
I9
I15
I14
I34
I37
I0
I258
I-1
t(dtRp1193
aa(lp1194
Vcomment
p1195
aVFixing [[Category:Pages containing cite templates with deprecated parameters|deprecated month parameter]] using [[WP:AutoEd|AutoEd]]
p1196
aatRp1197
ag2
((lp1198
(lp1199
Vrevid
p1200
aI623290923
aa(lp1201
Vparentid
p1202
aI623290832
aa(lp1203
Vuser
p1204
aVFrosty
p1205
aa(lp1206
Vtimestamp
p1207
ag15
((I2014
I8
I29
I9
I52
I55
I4
I241
I-1
t(dtRp1208
aa(lp1209
Vcomment
p1210
aVReverted edits by [[Special:Contributions/194.22.5.12|194.22.5.12]] ([[User talk:194.22.5.12|talk]]): [[WP:SANDBOX|editing tests]] ([[WP:HG|HG]])
p1211
aatRp1212
ag2
((lp1213
(lp1214
Vrevid
p1215
aI623290832
aa(lp1216
Vparentid
p1217
aI604233942
aa(lp1218
Vuser
p1219
aV194.22.5.12
p1220
aa(lp1221
Vanon
p1222
aV
aa(lp1223
Vtimestamp
p1224
ag15
((I2014
I8
I29
I9
I51
I37
I4
I241
I-1
t(dtRp1225
aa(lp1226
Vcomment
p1227
aV/* Background */
p1228
aatRp1229
ag2
((lp1230
(lp1231
Vrevid
p1232
aI604233942
aa(lp1233
Vparentid
p1234
aI602520123
aa(lp1235
Vuser
p1236
aVUnscintillating
p1237
aa(lp1238
Vtimestamp
p1239
ag15
((I2014
I4
I15
I0
I41
I16
I1
I105
I-1
t(dtRp1240
aa(lp1241
Vcomment
p1242
aV/* Don't rush to delete articles */ update to the AI
p1243
aatRp1244
ag2
((lp1245
(lp1246
Vrevid
p1247
aI602520123
aa(lp1248
Vparentid
p1249
aI602257322
aa(lp1250
Vuser
p1251
aVSpirit of Eagle
p1252
aa(lp1253
Vtimestamp
p1254
ag15
((I2014
I4
I3
I3
I39
I59
I3
I93
I-1
t(dtRp1255
aa(lp1256
Vcomment
p1257
aV
aatRp1258
ag2
((lp1259
(lp1260
Vrevid
p1261
aI602257322
aa(lp1262
Vparentid
p1263
aI594426737
aa(lp1264
Vuser
p1265
aV.js
p1266
aa(lp1267
Vtimestamp
p1268
ag15
((I2014
I4
I1
I12
I31
I13
I1
I91
I-1
t(dtRp1269
aa(lp1270
Vcomment
p1271
aVWP events
p1272
aatRp1273
ag2
((lp1274
(lp1275
Vrevid
p1276
aI594426737
aa(lp1277
Vparentid
p1278
aI591503063
aa(lp1279
Vuser
p1280
aVMatjamoe
p1281
aa(lp1282
Vtimestamp
p1283
ag15
((I2014
I2
I7
I21
I47
I0
I4
I38
I-1
t(dtRp1284
aa(lp1285
Vcomment
p1286
aVNo, WP:NE does not redirect here. It redirects to the Northern Emirates WikiProject.
p1287
aatRp1288
ag2
((lp1289
(lp1290
Vrevid
p1291
aI591503063
aa(lp1292
Vparentid
p1293
aI587317775
aa(lp1294
Vuser
p1295
aVMz7
p1296
aa(lp1297
Vtimestamp
p1298
ag15
((I2014
I1
I20
I2
I31
I16
I0
I20
I-1
t(dtRp1299
aa(lp1300
Vcomment
p1301
aVthis definition of notability is confusing; replacing with the one at [[WP:N]]
p1302
aatRp1303
ag2
((lp1304
(lp1305
Vrevid
p1306
aI587317775
aa(lp1307
Vparentid
p1308
aI587317741
aa(lp1309
Vminor
p1310
aV
aa(lp1311
Vuser
p1312
aVDavidwr
p1313
aa(lp1314
Vtimestamp
p1315
ag15
((I2013
I12
I23
I2
I51
I57
I0
I357
I-1
t(dtRp1316
aa(lp1317
Vcomment
p1318
aV/* Depth of coverage */ DEPTH -> WP:DEPTH
p1319
aatRp1320
ag2
((lp1321
(lp1322
Vrevid
p1323
aI587317741
aa(lp1324
Vparentid
p1325
aI582112075
aa(lp1326
Vuser
p1327
aVDavidwr
p1328
aa(lp1329
Vtimestamp
p1330
ag15
((I2013
I12
I23
I2
I51
I33
I0
I357
I-1
t(dtRp1331
aa(lp1332
Vcomment
p1333
aV/* Depth of coverage */ + newly created shortcut [[WP:DEPTH]]
p1334
aatRp1335
ag2
((lp1336
(lp1337
Vrevid
p1338
aI582112075
aa(lp1339
Vparentid
p1340
aI581868948
aa(lp1341
Vuser
p1342
aVEpicgenius
p1343
aa(lp1344
Vtimestamp
p1345
ag15
((I2013
I11
I17
I22
I24
I51
I6
I321
I-1
t(dtRp1346
aa(lp1347
Vcomment
p1348
aV
aatRp1349
ag2
((lp1350
(lp1351
Vrevid
p1352
aI581868948
aa(lp1353
Vparentid
p1354
aI581868911
aa(lp1355
Vminor
p1356
aV
aa(lp1357
Vuser
p1358
aVQuant18
p1359
aa(lp1360
Vtimestamp
p1361
ag15
((I2013
I11
I16
I5
I20
I45
I5
I320
I-1
t(dtRp1362
aa(lp1363
Vcomment
p1364
aV/* Routine coverage */ fix citation error (specify only one of "first"/"last" or "author")
p1365
aatRp1366
ag2
((lp1367
(lp1368
Vrevid
p1369
aI581868911
aa(lp1370
Vparentid
p1371
aI568545638
aa(lp1372
Vminor
p1373
aV
aa(lp1374
Vuser
p1375
aVQuant18
p1376
aa(lp1377
Vtimestamp
p1378
ag15
((I2013
I11
I16
I5
I20
I14
I5
I320
I-1
t(dtRp1379
aa(lp1380
Vcomment
p1381
aV/* Depth of coverage */ fix citation error (specify only one of "first"/"last" or "author")
p1382
aatRp1383
ag2
((lp1384
(lp1385
Vrevid
p1386
aI568545638
aa(lp1387
Vparentid
p1388
aI567819779
aa(lp1389
Vuser
p1390
aVRenamedUser jaskldjslak901
p1391
aa(lp1392
Vtimestamp
p1393
ag15
((I2013
I8
I14
I19
I8
I41
I2
I226
I-1
t(dtRp1394
aa(lp1395
Vcomment
p1396
aV/* Routine coverage */ - remove not routine link personal essay, should be discussed in talk before adding
p1397
aatRp1398
ag2
((lp1399
(lp1400
Vrevid
p1401
aI567819779
aa(lp1402
Vparentid
p1403
aI567416240
aa(lp1404
Vuser
p1405
aVPaulmcdonald
p1406
aa(lp1407
Vtimestamp
p1408
ag15
((I2013
I8
I9
I13
I58
I16
I4
I221
I-1
t(dtRp1409
aa(lp1410
Vcomment
p1411
aV/* Routine coverage */
p1412
aatRp1413
ag2
((lp1414
(lp1415
Vrevid
p1416
aI567416240
aa(lp1417
Vparentid
p1418
aI567408183
aa(lp1419
Vuser
p1420
aVNorthamerica1000
p1421
aa(lp1422
Vtimestamp
p1423
ag15
((I2013
I8
I6
I16
I11
I6
I1
I218
I-1
t(dtRp1424
aa(lp1425
Vcomment
p1426
aV/* Inclusion criteria */ + {{shortcut|WP:EVENTCRIT}}
p1427
aatRp1428
ag2
((lp1429
(lp1430
Vrevid
p1431
aI567408183
aa(lp1432
Vparentid
p1433
aI560323189
aa(lp1434
Vuser
p1435
aVDiego Moya
p1436
aa(lp1437
Vtimestamp
p1438
ag15
((I2013
I8
I6
I15
I2
I16
I1
I218
I-1
t(dtRp1439
aa(lp1440
Vcomment
p1441
aV/* Don't rush to delete articles */  Discussion archived
p1442
aatRp1443
ag2
((lp1444
(lp1445
Vrevid
p1446
aI560323189
aa(lp1447
Vparentid
p1448
aI560322746
aa(lp1449
Vuser
p1450
aVMasem
p1451
aa(lp1452
Vtimestamp
p1453
ag15
((I2013
I6
I17
I17
I20
I3
I0
I168
I-1
t(dtRp1454
aa(lp1455
Vcomment
p1456
aVReverted [[WP:AGF|good faith]] edits by [[Special:Contributions/Africamusicconference|Africamusicconference]] ([[User talk:Africamusicconference|talk]]): Rm deletion. ([[WP:TW|TW]])
p1457
aatRp1458
ag2
((lp1459
(lp1460
Vrevid
p1461
aI560322746
aa(lp1462
Vparentid
p1463
aI560322705
aa(lp1464
Vuser
p1465
aVAfricamusicconference
p1466
aa(lp1467
Vtimestamp
p1468
ag15
((I2013
I6
I17
I17
I17
I2
I0
I168
I-1
t(dtRp1469
aa(lp1470
Vcomment
p1471
aV
aatRp1472
ag2
((lp1473
(lp1474
Vrevid
p1475
aI560322705
aa(lp1476
Vparentid
p1477
aI560322662
aa(lp1478
Vuser
p1479
aVMasem
p1480
aa(lp1481
Vtimestamp
p1482
ag15
((I2013
I6
I17
I17
I16
I45
I0
I168
I-1
t(dtRp1483
aa(lp1484
Vcomment
p1485
aVReverted [[WP:AGF|good faith]] edits by [[Special:Contributions/Africamusicconference|Africamusicconference]] ([[User talk:Africamusicconference|talk]]): This is not the place to add article content. ([[WP:TW|TW]])
p1486
aatRp1487
ag2
((lp1488
(lp1489
Vrevid
p1490
aI560322662
aa(lp1491
Vparentid
p1492
aI560322421
aa(lp1493
Vuser
p1494
aVAfricamusicconference
p1495
aa(lp1496
Vtimestamp
p1497
ag15
((I2013
I6
I17
I17
I16
I22
I0
I168
I-1
t(dtRp1498
aa(lp1499
Vcomment
p1500
aV/* Background */
p1501
aatRp1502
ag2
((lp1503
(lp1504
Vrevid
p1505
aI560322421
aa(lp1506
Vparentid
p1507
aI560322162
aa(lp1508
Vuser
p1509
aVAfricamusicconference
p1510
aa(lp1511
Vtimestamp
p1512
ag15
((I2013
I6
I17
I17
I14
I26
I0
I168
I-1
t(dtRp1513
aa(lp1514
Vcomment
p1515
aV/* Inclusion criteria */
p1516
aatRp1517
ag2
((lp1518
(lp1519
Vrevid
p1520
aI560322162
aa(lp1521
Vparentid
p1522
aI560321168
aa(lp1523
Vuser
p1524
aVAfricamusicconference
p1525
aa(lp1526
Vtimestamp
p1527
ag15
((I2013
I6
I17
I17
I12
I30
I0
I168
I-1
t(dtRp1528
aa(lp1529
Vcomment
p1530
aV/* Background */
p1531
aatRp1532
ag2
((lp1533
(lp1534
Vrevid
p1535
aI560321168
aa(lp1536
Vparentid
p1537
aI560320303
aa(lp1538
Vuser
p1539
aVMasem
p1540
aa(lp1541
Vtimestamp
p1542
ag15
((I2013
I6
I17
I17
I5
I29
I0
I168
I-1
t(dtRp1543
aa(lp1544
Vcomment
p1545
aVReverted [[WP:AGF|good faith]] edits by [[Special:Contributions/Africamusicconference|Africamusicconference]] ([[User talk:Africamusicconference|talk]]): Rm article contnet that should not be here. ([[WP:TW|TW]])
p1546
aatRp1547
ag2
((lp1548
(lp1549
Vrevid
p1550
aI560320303
aa(lp1551
Vparentid
p1552
aI557791149
aa(lp1553
Vuser
p1554
aVAfricamusicconference
p1555
aa(lp1556
Vtimestamp
p1557
ag15
((I2013
I6
I17
I16
I59
I10
I0
I168
I-1
t(dtRp1558
aa(lp1559
Vcomment
p1560
aV/* Background */
p1561
aatRp1562
ag2
((lp1563
(lp1564
Vrevid
p1565
aI557791149
aa(lp1566
Vparentid
p1567
aI555588744
aa(lp1568
Vminor
p1569
aV
aa(lp1570
Vuser
p1571
aVAddbot
p1572
aa(lp1573
Vtimestamp
p1574
ag15
((I2013
I6
I1
I5
I57
I56
I5
I152
I-1
t(dtRp1575
aa(lp1576
Vcomment
p1577
aV[[User:Addbot|Bot:]] Migrating 1 interwiki links, now provided by [[Wikipedia:Wikidata|Wikidata]] on [[d:q7236489]]
p1578
aatRp1579
ag2
((lp1580
(lp1581
Vrevid
p1582
aI555588744
aa(lp1583
Vparentid
p1584
aI555082760
aa(lp1585
Vminor
p1586
aV
aa(lp1587
Vuser
p1588
aVAddbot
p1589
aa(lp1590
Vtimestamp
p1591
ag15
((I2013
I5
I18
I0
I42
I27
I5
I138
I-1
t(dtRp1592
aa(lp1593
Vcomment
p1594
aV[[User:Addbot|Bot:]] Migrating 2 interwiki links, now provided by [[Wikipedia:Wikidata|Wikidata]] on [[d:q7236489]]
p1595
aatRp1596
ag2
((lp1597
(lp1598
Vrevid
p1599
aI555082760
aa(lp1600
Vparentid
p1601
aI547692056
aa(lp1602
Vuser
p1603
aVHellno2
p1604
aa(lp1605
Vtimestamp
p1606
ag15
((I2013
I5
I14
I17
I21
I20
I1
I134
I-1
t(dtRp1607
aa(lp1608
Vcomment
p1609
aV/* See also */ [[Wikipedia:"Murder of" articles]]
p1610
aatRp1611
ag2
((lp1612
(lp1613
Vrevid
p1614
aI547692056
aa(lp1615
Vparentid
p1616
aI547688548
aa(lp1617
Vuser
p1618
aVPaine Ellsworth
p1619
aa(lp1620
Vtimestamp
p1621
ag15
((I2013
I3
I29
I21
I31
I51
I4
I88
I-1
t(dtRp1622
aa(lp1623
Vcomment
p1624
aV/* Geographical scope */ anchor old section name to fix broken links
p1625
aatRp1626
ag2
((lp1627
(lp1628
Vrevid
p1629
aI547688548
aa(lp1630
Vparentid
p1631
aI547687550
aa(lp1632
Vminor
p1633
aV
aa(lp1634
Vuser
p1635
aVPaine Ellsworth
p1636
aa(lp1637
Vtimestamp
p1638
ag15
((I2013
I3
I29
I21
I10
I15
I4
I88
I-1
t(dtRp1639
aa(lp1640
Vcomment
p1641
aV/* {{anchor|Persistence of coverage}}Duration of coverage */ clarified
p1642
aatRp1643
ag2
((lp1644
(lp1645
Vrevid
p1646
aI547687550
aa(lp1647
Vparentid
p1648
aI547687305
aa(lp1649
Vminor
p1650
aV
aa(lp1651
Vuser
p1652
aVPaine Ellsworth
p1653
aa(lp1654
Vtimestamp
p1655
ag15
((I2013
I3
I29
I21
I4
I2
I4
I88
I-1
t(dtRp1656
aa(lp1657
Vcomment
p1658
aV/* {{anchor|Persistence of coverage}}Duration of coverage */ rm vague comment
p1659
aatRp1660
ag2
((lp1661
(lp1662
Vrevid
p1663
aI547687305
aa(lp1664
Vparentid
p1665
aI547677324
aa(lp1666
Vminor
p1667
aV
aa(lp1668
Vuser
p1669
aVPaine Ellsworth
p1670
aa(lp1671
Vtimestamp
p1672
ag15
((I2013
I3
I29
I21
I2
I46
I4
I88
I-1
t(dtRp1673
aa(lp1674
Vcomment
p1675
aV/* Duration of coverage */ create anchor to fix broken links
p1676
aatRp1677
ag2
((lp1678
(lp1679
Vrevid
p1680
aI547677324
aa(lp1681
Vparentid
p1682
aI535987674
aa(lp1683
Vuser
p1684
aVPaine Ellsworth
p1685
aa(lp1686
Vtimestamp
p1687
ag15
((I2013
I3
I29
I20
I0
I52
I4
I88
I-1
t(dtRp1688
aa(lp1689
Vcomment
p1690
aV/* Don't rush to delete articles */ anchor to fix broken links
p1691
aatRp1692
ag2
((lp1693
(lp1694
Vrevid
p1695
aI535987674
aa(lp1696
Vparentid
p1697
aI535987611
aa(lp1698
Vminor
p1699
aV
aa(lp1700
Vuser
p1701
aVMkdw
p1702
aa(lp1703
Vtimestamp
p1704
ag15
((I2013
I2
I1
I7
I3
I1
I4
I32
I-1
t(dtRp1705
aa(lp1706
Vcomment
p1707
aVputting in order
p1708
aatRp1709
ag2
((lp1710
(lp1711
Vrevid
p1712
aI535987611
aa(lp1713
Vparentid
p1714
aI535213871
aa(lp1715
Vuser
p1716
aVMkdw
p1717
aa(lp1718
Vtimestamp
p1719
ag15
((I2013
I2
I1
I7
I2
I20
I4
I32
I-1
t(dtRp1720
aa(lp1721
Vcomment
p1722
aVlasting
p1723
aatRp1724
ag2
((lp1725
(lp1726
Vrevid
p1727
aI535213871
aa(lp1728
Vparentid
p1729
aI535062611
aa(lp1730
Vminor
p1731
aV
aa(lp1732
Vuser
p1733
aVWdchk
p1734
aa(lp1735
Vtimestamp
p1736
ag15
((I2013
I1
I27
I19
I33
I35
I6
I27
I-1
t(dtRp1737
aa(lp1738
Vcomment
p1739
aV/* Inclusion criteria */ hyphens \u2192 [[WP:MDASH|en dash]]
p1740
aatRp1741
ag2
((lp1742
(lp1743
Vrevid
p1744
aI535062611
aa(lp1745
Vparentid
p1746
aI531663070
aa(lp1747
Vuser
p1748
aVOjdvQ9fNJWl
p1749
aa(lp1750
Vtimestamp
p1751
ag15
((I2013
I1
I26
I23
I1
I45
I5
I26
I-1
t(dtRp1752
aa(lp1753
Vcomment
p1754
aV/* See also */ update
p1755
aatRp1756
ag2
((lp1757
(lp1758
Vrevid
p1759
aI531663070
aa(lp1760
Vparentid
p1761
aI530627391
aa(lp1762
Vuser
p1763
aVAzurfrog
p1764
aa(lp1765
Vtimestamp
p1766
ag15
((I2013
I1
I6
I19
I32
I52
I6
I6
I-1
t(dtRp1767
aa(lp1768
Vcomment
p1769
aV/* Notes */ Link to French page.
p1770
aatRp1771
ag2
((lp1772
(lp1773
Vrevid
p1774
aI530627391
aa(lp1775
Vparentid
p1776
aI520851944
aa(lp1777
Vuser
p1778
aVThe Devil's Advocate
p1779
aa(lp1780
Vtimestamp
p1781
ag15
((I2012
I12
I31
I16
I21
I28
I0
I366
I-1
t(dtRp1782
aa(lp1783
Vcomment
p1784
aV/* Geographical scope */  this wording needs to be clearer as WP:INDEPTH and WP:PERSISTENCE take precedence
p1785
aatRp1786
ag2
((lp1787
(lp1788
Vrevid
p1789
aI520851944
aa(lp1790
Vparentid
p1791
aI509169927
aa(lp1792
Vuser
p1793
aVKusunose
p1794
aa(lp1795
Vtimestamp
p1796
ag15
((I2012
I11
I1
I4
I33
I7
I3
I306
I-1
t(dtRp1797
aa(lp1798
Vcomment
p1799
aV/* See also */ added [[Wikipedia:Naming conventions (events)]]
p1800
aatRp1801
ag2
((lp1802
(lp1803
Vrevid
p1804
aI509169927
aa(lp1805
Vparentid
p1806
aI509169834
aa(lp1807
Vuser
p1808
aVLocation
p1809
aa(lp1810
Vtimestamp
p1811
ag15
((I2012
I8
I26
I0
I38
I15
I6
I239
I-1
t(dtRp1812
aa(lp1813
Vcomment
p1814
aVsection title
p1815
aatRp1816
ag2
((lp1817
(lp1818
Vrevid
p1819
aI509169834
aa(lp1820
Vparentid
p1821
aI509031921
aa(lp1822
Vuser
p1823
aVLocation
p1824
aa(lp1825
Vtimestamp
p1826
ag15
((I2012
I8
I26
I0
I37
I35
I6
I239
I-1
t(dtRp1827
aa(lp1828
Vcomment
p1829
aV/* Background */  rewording per talk page
p1830
aatRp1831
ag2
((lp1832
(lp1833
Vrevid
p1834
aI509031921
aa(lp1835
Vparentid
p1836
aI508690456
aa(lp1837
Vuser
p1838
aVLocation
p1839
aa(lp1840
Vtimestamp
p1841
ag15
((I2012
I8
I25
I3
I58
I2
I5
I238
I-1
t(dtRp1842
aa(lp1843
Vcomment
p1844
aVFor consistency, I have reworded the lede to mirror that of [[Wikipedia:Notability (people)]]. Please revert and discuss if there are objections.
p1845
aatRp1846
ag2
((lp1847
(lp1848
Vrevid
p1849
aI508690456
aa(lp1850
Vparentid
p1851
aI508665632
aa(lp1852
Vuser
p1853
aVLocation
p1854
aa(lp1855
Vtimestamp
p1856
ag15
((I2012
I8
I22
I22
I16
I25
I2
I235
I-1
t(dtRp1857
aa(lp1858
Vcomment
p1859
aV/* Breaking news */  Section titles consistent with [[Wikipedia:There is no deadline]]
p1860
aatRp1861
ag2
((lp1862
(lp1863
Vrevid
p1864
aI508665632
aa(lp1865
Vparentid
p1866
aI504151156
aa(lp1867
Vuser
p1868
aVTheRedPenOfDoom
p1869
aa(lp1870
Vtimestamp
p1871
ag15
((I2012
I8
I22
I19
I39
I7
I2
I235
I-1
t(dtRp1872
aa(lp1873
Vcomment
p1874
aV/* Don't nominate too rapidly for deletion */
p1875
aatRp1876
ag2
((lp1877
(lp1878
Vrevid
p1879
aI504151156
aa(lp1880
Vparentid
p1881
aI500393919
aa(lp1882
Vuser
p1883
aVLocation
p1884
aa(lp1885
Vtimestamp
p1886
ag15
((I2012
I7
I25
I18
I48
I3
I2
I207
I-1
t(dtRp1887
aa(lp1888
Vcomment
p1889
aV/* Lasting effects */  rv of section change per talk page
p1890
aatRp1891
ag2
((lp1892
(lp1893
Vrevid
p1894
aI500393919
aa(lp1895
Vparentid
p1896
aI497364130
aa(lp1897
Vuser
p1898
aVThaddeusB
p1899
aa(lp1900
Vtimestamp
p1901
ag15
((I2012
I7
I2
I22
I22
I42
I0
I184
I-1
t(dtRp1902
aa(lp1903
Vcomment
p1904
aV/* Inclusion criteria */ discussion ended and was archived ([[Wikipedia_talk:Notability/Archive_51#.22Enduring.22_notability]]) without any real conclusion
p1905
aatRp1906
ag2
((lp1907
(lp1908
Vrevid
p1909
aI497364130
aa(lp1910
Vparentid
p1911
aI493134701
aa(lp1912
Vuser
p1913
aVGeorge Ho
p1914
aa(lp1915
Vtimestamp
p1916
ag15
((I2012
I6
I13
I8
I22
I11
I2
I165
I-1
t(dtRp1917
aa(lp1918
Vcomment
p1919
aV/* Inclusion criteria */ meaning of "enduring" under discussion elsewhere
p1920
aatRp1921
ag2
((lp1922
(lp1923
Vrevid
p1924
aI493134701
aa(lp1925
Vparentid
p1926
aI491096183
aa(lp1927
Vuser
p1928
aVDipankan001
p1929
aa(lp1930
Vtimestamp
p1931
ag15
((I2012
I5
I18
I3
I56
I58
I4
I139
I-1
t(dtRp1932
aa(lp1933
Vcomment
p1934
aV
aatRp1935
ag2
((lp1936
(lp1937
Vrevid
p1938
aI491096183
aa(lp1939
Vparentid
p1940
aI491096113
aa(lp1941
Vminor
p1942
aV
aa(lp1943
Vuser
p1944
aVJesanj
p1945
aa(lp1946
Vtimestamp
p1947
ag15
((I2012
I5
I7
I0
I36
I45
I0
I128
I-1
t(dtRp1948
aa(lp1949
Vcomment
p1950
aVReverted 1 edit by [[Special:Contributions/Justin Briante|Justin Briante]] ([[User talk:Justin Briante|talk]]) identified as [[WP:VAND|vandalism]] to last revision by Amiraram. ([[WP:TW|TW]])
p1951
aatRp1952
ag2
((lp1953
(lp1954
Vrevid
p1955
aI491096113
aa(lp1956
Vparentid
p1957
aI490599145
aa(lp1958
Vuser
p1959
aVJustin Briante
p1960
aa(lp1961
Vtimestamp
p1962
ag15
((I2012
I5
I7
I0
I36
I17
I0
I128
I-1
t(dtRp1963
aa(lp1964
Vcomment
p1965
aV
aatRp1966
ag2
((lp1967
(lp1968
Vrevid
p1969
aI490599145
aa(lp1970
Vparentid
p1971
aI489644866
aa(lp1972
Vuser
p1973
aVAmiraram
p1974
aa(lp1975
Vtimestamp
p1976
ag15
((I2012
I5
I4
I7
I58
I3
I4
I125
I-1
t(dtRp1977
aa(lp1978
Vcomment
p1979
aV
aatRp1980
ag2
((lp1981
(lp1982
Vrevid
p1983
aI489644866
aa(lp1984
Vparentid
p1985
aI473024965
aa(lp1986
Vuser
p1987
aVUnscintillating
p1988
aa(lp1989
Vtimestamp
p1990
ag15
((I2012
I4
I28
I16
I19
I51
I5
I119
I-1
t(dtRp1991
aa(lp1992
Vcomment
p1993
aV/* Routine coverage */ update deprecated redirect
p1994
aatRp1995
ag2
((lp1996
(lp1997
Vrevid
p1998
aI473024965
aa(lp1999
Vparentid
p2000
aI471912090
aa(lp2001
Vuser
p2002
aVHellno2
p2003
aa(lp2004
Vtimestamp
p2005
ag15
((I2012
I1
I24
I19
I3
I37
I1
I24
I-1
t(dtRp2006
aa(lp2007
Vcomment
p2008
aV/* Don't nominate too rapidly for deletion */ Add shortcut
p2009
aatRp2010
ag2
((lp2011
(lp2012
Vrevid
p2013
aI471912090
aa(lp2014
Vparentid
p2015
aI471890101
aa(lp2016
Vuser
p2017
aVCybercobra
p2018
aa(lp2019
Vtimestamp
p2020
ag15
((I2012
I1
I17
I19
I23
I42
I1
I17
I-1
t(dtRp2021
aa(lp2022
Vcomment
p2023
aV/* Don't nominate too rapidly for deletion */ prev edit lost the BLP subclause without explanation
p2024
aatRp2025
ag2
((lp2026
(lp2027
Vrevid
p2028
aI471890101
aa(lp2029
Vparentid
p2030
aI468249456
aa(lp2031
Vuser
p2032
aVLambiam
p2033
aa(lp2034
Vtimestamp
p2035
ag15
((I2012
I1
I17
I17
I4
I10
I1
I17
I-1
t(dtRp2036
aa(lp2037
Vcomment
p2038
aV/* Breaking news */ rarely consensus to delete
p2039
aatRp2040
ag2
((lp2041
(lp2042
Vrevid
p2043
aI468249456
aa(lp2044
Vparentid
p2045
aI467737719
aa(lp2046
Vuser
p2047
aVSilkTork
p2048
aa(lp2049
Vtimestamp
p2050
ag15
((I2011
I12
I29
I11
I0
I17
I3
I363
I-1
t(dtRp2051
aa(lp2052
Vcomment
p2053
aV/* Notes */ {{reflist}}
p2054
aatRp2055
ag2
((lp2056
(lp2057
Vrevid
p2058
aI467737719
aa(lp2059
Vparentid
p2060
aI455843107
aa(lp2061
Vminor
p2062
aV
aa(lp2063
Vuser
p2064
aVJpatokal
p2065
aa(lp2066
Vtimestamp
p2067
ag15
((I2011
I12
I26
I10
I48
I21
I0
I360
I-1
t(dtRp2068
aa(lp2069
Vcomment
p2070
aV/* Lasting effects */ sp; should be lowercase
p2071
aatRp2072
ag2
((lp2073
(lp2074
Vrevid
p2075
aI455843107
aa(lp2076
Vparentid
p2077
aI455824569
aa(lp2078
Vminor
p2079
aV
aa(lp2080
Vuser
p2081
aVJenks24
p2082
aa(lp2083
Vtimestamp
p2084
ag15
((I2011
I10
I16
I13
I37
I39
I6
I289
I-1
t(dtRp2085
aa(lp2086
Vcomment
p2087
aV/* Routine coverage */ spacing
p2088
aatRp2089
ag2
((lp2090
(lp2091
Vrevid
p2092
aI455824569
aa(lp2093
Vparentid
p2094
aI446684437
aa(lp2095
Vuser
p2096
aVThe Bushranger
p2097
aa(lp2098
Vtimestamp
p2099
ag15
((I2011
I10
I16
I10
I27
I30
I6
I289
I-1
t(dtRp2100
aa(lp2101
Vcomment
p2102
aV/* Routine coverage */ extra sc
p2103
aatRp2104
ag2
((lp2105
(lp2106
Vrevid
p2107
aI446684437
aa(lp2108
Vparentid
p2109
aI444380482
aa(lp2110
Vminor
p2111
aV
aa(lp2112
Vuser
p2113
aVJesanj
p2114
aa(lp2115
Vtimestamp
p2116
ag15
((I2011
I8
I25
I17
I21
I12
I3
I237
I-1
t(dtRp2117
aa(lp2118
Vcomment
p2119
aV/* Criminal acts */ comma before citation
p2120
aatRp2121
ag2
((lp2122
(lp2123
Vrevid
p2124
aI444380482
aa(lp2125
Vparentid
p2126
aI444380296
aa(lp2127
Vuser
p2128
aVCerejota
p2129
aa(lp2130
Vtimestamp
p2131
ag15
((I2011
I8
I12
I3
I36
I18
I4
I224
I-1
t(dtRp2132
aa(lp2133
Vcomment
p2134
aVNEVENT
p2135
aatRp2136
ag2
((lp2137
(lp2138
Vrevid
p2139
aI444380296
aa(lp2140
Vparentid
p2141
aI442163472
aa(lp2142
Vuser
p2143
aVCerejota
p2144
aa(lp2145
Vtimestamp
p2146
ag15
((I2011
I8
I12
I3
I34
I30
I4
I224
I-1
t(dtRp2147
aa(lp2148
Vcomment
p2149
aVWP:NEVENTS
p2150
aatRp2151
ag2
((lp2152
(lp2153
Vrevid
p2154
aI442163472
aa(lp2155
Vparentid
p2156
aI431596494
aa(lp2157
Vuser
p2158
aVThe Other Saluton
p2159
aa(lp2160
Vtimestamp
p2161
ag15
((I2011
I7
I30
I6
I49
I52
I5
I211
I-1
t(dtRp2162
aa(lp2163
Vcomment
p2164
aV
aatRp2165
ag2
((lp2166
(lp2167
Vrevid
p2168
aI431596494
aa(lp2169
Vparentid
p2170
aI418166999
aa(lp2171
Vuser
p2172
aVFences and windows
p2173
aa(lp2174
Vtimestamp
p2175
ag15
((I2011
I5
I30
I4
I27
I10
I0
I150
I-1
t(dtRp2176
aa(lp2177
Vcomment
p2178
aV/* See also */ Another essay
p2179
aatRp2180
ag2
((lp2181
(lp2182
Vrevid
p2183
aI418166999
aa(lp2184
Vparentid
p2185
aI412723495
aa(lp2186
Vuser
p2187
aVUnscintillating
p2188
aa(lp2189
Vtimestamp
p2190
ag15
((I2011
I3
I10
I18
I38
I2
I3
I69
I-1
t(dtRp2191
aa(lp2192
Vcomment
p2193
aV/* See also */ Wikipedia:Deletion policy
p2194
aatRp2195
ag2
((lp2196
(lp2197
Vrevid
p2198
aI412723495
aa(lp2199
Vparentid
p2200
aI412722960
aa(lp2201
Vuser
p2202
aVHodgdon's secret garden
p2203
aa(lp2204
Vtimestamp
p2205
ag15
((I2011
I2
I8
I14
I21
I10
I1
I39
I-1
t(dtRp2206
aa(lp2207
Vcomment
p2208
aV/* Criminal acts */ -->wp
p2209
aatRp2210
ag2
((lp2211
(lp2212
Vrevid
p2213
aI412722960
aa(lp2214
Vparentid
p2215
aI409122217
aa(lp2216
Vuser
p2217
aVHodgdon's secret garden
p2218
aa(lp2219
Vtimestamp
p2220
ag15
((I2011
I2
I8
I14
I17
I25
I1
I39
I-1
t(dtRp2221
aa(lp2222
Vcomment
p2223
aV/* Criminal acts */ update
p2224
aatRp2225
ag2
((lp2226
(lp2227
Vrevid
p2228
aI409122217
aa(lp2229
Vparentid
p2230
aI409121565
aa(lp2231
Vuser
p2232
aVLocation
p2233
aa(lp2234
Vtimestamp
p2235
ag15
((I2011
I1
I21
I7
I0
I19
I4
I21
I-1
t(dtRp2236
aa(lp2237
Vcomment
p2238
aV/* See also */ [[Wikipedia:Notability (railway incidents)]] has been rejected since this was added to the "See also" section.
p2239
aatRp2240
ag2
((lp2241
(lp2242
Vrevid
p2243
aI409121565
aa(lp2244
Vparentid
p2245
aI408512458
aa(lp2246
Vuser
p2247
aVLocation
p2248
aa(lp2249
Vtimestamp
p2250
ag15
((I2011
I1
I21
I6
I51
I50
I4
I21
I-1
t(dtRp2251
aa(lp2252
Vcomment
p2253
aV/* Lasting effects */ While the statement is true, the article referenced technically falls under the guidance of [[WP:BIO]] not [[WP:EVENT]].
p2254
aatRp2255
ag2
((lp2256
(lp2257
Vrevid
p2258
aI408512458
aa(lp2259
Vparentid
p2260
aI408128948
aa(lp2261
Vuser
p2262
aVLocation
p2263
aa(lp2264
Vtimestamp
p2265
ag15
((I2011
I1
I18
I2
I11
I49
I1
I18
I-1
t(dtRp2266
aa(lp2267
Vcomment
p2268
aV/* The coverage */  section missing bullet point
p2269
aatRp2270
ag2
((lp2271
(lp2272
Vrevid
p2273
aI408128948
aa(lp2274
Vparentid
p2275
aI408128709
aa(lp2276
Vuser
p2277
aVLocation
p2278
aa(lp2279
Vtimestamp
p2280
ag15
((I2011
I1
I16
I2
I1
I31
I6
I16
I-1
t(dtRp2281
aa(lp2282
Vcomment
p2283
aV/* People notable for only one event */  [[WP:BLP1E]] and [[WP:BIO1E]] give some reasoning as to when it it appropriate to create an article on a person known for a single event.
p2284
aatRp2285
ag2
((lp2286
(lp2287
Vrevid
p2288
aI408128709
aa(lp2289
Vparentid
p2290
aI408128447
aa(lp2291
Vuser
p2292
aVLocation
p2293
aa(lp2294
Vtimestamp
p2295
ag15
((I2011
I1
I16
I1
I59
I37
I6
I16
I-1
t(dtRp2296
aa(lp2297
Vcomment
p2298
aV/* People notable for only one event */  Struck "and other subjects" as unnecessary.
p2299
aatRp2300
ag2
((lp2301
(lp2302
Vrevid
p2303
aI408128447
aa(lp2304
Vparentid
p2305
aI407192727
aa(lp2306
Vuser
p2307
aVLocation
p2308
aa(lp2309
Vtimestamp
p2310
ag15
((I2011
I1
I16
I1
I57
I30
I6
I16
I-1
t(dtRp2311
aa(lp2312
Vcomment
p2313
aV/* Participants known for one event */ Title changed for consistency; reflects title at [[WP:BIO1E]]
p2314
aatRp2315
ag2
((lp2316
(lp2317
Vrevid
p2318
aI407192727
aa(lp2319
Vparentid
p2320
aI405305914
aa(lp2321
Vminor
p2322
aV
aa(lp2323
Vuser
p2324
aVJayen466
p2325
aa(lp2326
Vtimestamp
p2327
ag15
((I2011
I1
I11
I2
I14
I23
I1
I11
I-1
t(dtRp2328
aa(lp2329
Vcomment
p2330
aV/* Alternatives to deletion */ ce
p2331
aatRp2332
ag2
((lp2333
(lp2334
Vrevid
p2335
aI405305914
aa(lp2336
Vparentid
p2337
aI402442399
aa(lp2338
Vuser
p2339
aV\u4eca\u53e4\u5eb8\u9f8d
p2340
aa(lp2341
Vtimestamp
p2342
ag15
((I2011
I1
I1
I11
I4
I35
I5
I1
I-1
t(dtRp2343
aa(lp2344
Vcomment
p2345
aV[[zh:Wikipedia:\u5173\u6ce8\u5ea6 (\u4e8b\u4ef6)]]
p2346
aatRp2347
ag2
((lp2348
(lp2349
Vrevid
p2350
aI402442399
aa(lp2351
Vparentid
p2352
aI395737479
aa(lp2353
Vminor
p2354
aV
aa(lp2355
Vuser
p2356
aVWhatamIdoing
p2357
aa(lp2358
Vtimestamp
p2359
ag15
((I2010
I12
I15
I1
I46
I0
I2
I349
I-1
t(dtRp2360
aa(lp2361
Vcomment
p2362
aVPunctuation
p2363
aatRp2364
ag2
((lp2365
(lp2366
Vrevid
p2367
aI395737479
aa(lp2368
Vparentid
p2369
aI390597089
aa(lp2370
Vuser
p2371
aVAlzarian16
p2372
aa(lp2373
Vtimestamp
p2374
ag15
((I2010
I11
I9
I13
I25
I11
I1
I313
I-1
t(dtRp2375
aa(lp2376
Vcomment
p2377
aV/* Diversity of sources */ Remove superfluous comma
p2378
aatRp2379
ag2
((lp2380
(lp2381
Vrevid
p2382
aI390597089
aa(lp2383
Vparentid
p2384
aI390596108
aa(lp2385
Vuser
p2386
aVLocation
p2387
aa(lp2388
Vtimestamp
p2389
ag15
((I2010
I10
I13
I23
I29
I0
I2
I286
I-1
t(dtRp2390
aa(lp2391
Vcomment
p2392
aVUndid revision 390596108 by [[Special:Contributions/Natalieacp|Natalieacp]] ([[User talk:Natalieacp|talk]])
p2393
aatRp2394
ag2
((lp2395
(lp2396
Vrevid
p2397
aI390596108
aa(lp2398
Vparentid
p2399
aI389666617
aa(lp2400
Vuser
p2401
aVNatalieacp
p2402
aa(lp2403
Vtimestamp
p2404
ag15
((I2010
I10
I13
I23
I22
I25
I2
I286
I-1
t(dtRp2405
aa(lp2406
Vcomment
p2407
aV/* Background */
p2408
aatRp2409
ag2
((lp2410
(lp2411
Vrevid
p2412
aI389666617
aa(lp2413
Vparentid
p2414
aI389665394
aa(lp2415
Vuser
p2416
aVUlarevalo98
p2417
aa(lp2418
Vtimestamp
p2419
ag15
((I2010
I10
I9
I7
I28
I1
I5
I282
I-1
t(dtRp2420
aa(lp2421
Vcomment
p2422
aVReverted to revision 388786801 by [[Special:Contributions/Fences and windows|Fences and windows]]; unreliable edits. ([[WP:TW|TW]])
p2423
aatRp2424
ag2
((lp2425
(lp2426
Vrevid
p2427
aI389665394
aa(lp2428
Vparentid
p2429
aI389665337
aa(lp2430
Vuser
p2431
aVHans chem
p2432
aa(lp2433
Vtimestamp
p2434
ag15
((I2010
I10
I9
I7
I15
I57
I5
I282
I-1
t(dtRp2435
aa(lp2436
Vcomment
p2437
aV/* Other circumstances */
p2438
aatRp2439
ag2
((lp2440
(lp2441
Vrevid
p2442
aI389665337
aa(lp2443
Vparentid
p2444
aI389665257
aa(lp2445
Vuser
p2446
aVHans chem
p2447
aa(lp2448
Vtimestamp
p2449
ag15
((I2010
I10
I9
I7
I15
I23
I5
I282
I-1
t(dtRp2450
aa(lp2451
Vcomment
p2452
aV/* Inclusion criteria */
p2453
aatRp2454
ag2
((lp2455
(lp2456
Vrevid
p2457
aI389665257
aa(lp2458
Vparentid
p2459
aI388786801
aa(lp2460
Vuser
p2461
aVHans chem
p2462
aa(lp2463
Vtimestamp
p2464
ag15
((I2010
I10
I9
I7
I14
I47
I5
I282
I-1
t(dtRp2465
aa(lp2466
Vcomment
p2467
aV/* Background */
p2468
aatRp2469
ag2
((lp2470
(lp2471
Vrevid
p2472
aI388786801
aa(lp2473
Vparentid
p2474
aI388631590
aa(lp2475
Vuser
p2476
aVFences and windows
p2477
aa(lp2478
Vtimestamp
p2479
ag15
((I2010
I10
I4
I23
I29
I43
I0
I277
I-1
t(dtRp2480
aa(lp2481
Vcomment
p2482
aV/* Background */  Edit as the guideline on criminal acts was merged here
p2483
aatRp2484
ag2
((lp2485
(lp2486
Vrevid
p2487
aI388631590
aa(lp2488
Vparentid
p2489
aI387258905
aa(lp2490
Vminor
p2491
aV
aa(lp2492
Vuser
p2493
aVCybercobra
p2494
aa(lp2495
Vtimestamp
p2496
ag15
((I2010
I10
I4
I7
I24
I19
I0
I277
I-1
t(dtRp2497
aa(lp2498
Vcomment
p2499
aV/* Depth of coverage */ punct
p2500
aatRp2501
ag2
((lp2502
(lp2503
Vrevid
p2504
aI387258905
aa(lp2505
Vparentid
p2506
aI385018975
aa(lp2507
Vuser
p2508
aVGatoclass
p2509
aa(lp2510
Vtimestamp
p2511
ag15
((I2010
I9
I27
I5
I29
I11
I0
I270
I-1
t(dtRp2512
aa(lp2513
Vcomment
p2514
aV/* Depth of coverage */  no reason why this section should not have its own shortcut
p2515
aatRp2516
ag2
((lp2517
(lp2518
Vrevid
p2519
aI385018975
aa(lp2520
Vparentid
p2521
aI385018884
aa(lp2522
Vuser
p2523
aVLocation
p2524
aa(lp2525
Vtimestamp
p2526
ag15
((I2010
I9
I15
I18
I13
I40
I2
I258
I-1
t(dtRp2527
aa(lp2528
Vcomment
p2529
aV/* Routine coverage */  point referenced in Molotch's article
p2530
aatRp2531
ag2
((lp2532
(lp2533
Vrevid
p2534
aI385018884
aa(lp2535
Vparentid
p2536
aI385015901
aa(lp2537
Vuser
p2538
aVLocation
p2539
aa(lp2540
Vtimestamp
p2541
ag15
((I2010
I9
I15
I18
I12
I57
I2
I258
I-1
t(dtRp2542
aa(lp2543
Vcomment
p2544
aV/* Routine coverage */  cleaned up reference/cite
p2545
aatRp2546
ag2
((lp2547
(lp2548
Vrevid
p2549
aI385015901
aa(lp2550
Vparentid
p2551
aI385011881
aa(lp2552
Vuser
p2553
aVLocation
p2554
aa(lp2555
Vtimestamp
p2556
ag15
((I2010
I9
I15
I17
I46
I36
I2
I258
I-1
t(dtRp2557
aa(lp2558
Vcomment
p2559
aVcleaned up reference/cite
p2560
aatRp2561
ag2
((lp2562
(lp2563
Vrevid
p2564
aI385011881
aa(lp2565
Vparentid
p2566
aI382588377
aa(lp2567
Vuser
p2568
aVLocation
p2569
aa(lp2570
Vtimestamp
p2571
ag15
((I2010
I9
I15
I17
I8
I18
I2
I258
I-1
t(dtRp2572
aa(lp2573
Vcomment
p2574
aV/* Criminal acts */ clarifying that criminal acts are subject to same guidelines as other events
p2575
aatRp2576
ag2
((lp2577
(lp2578
Vrevid
p2579
aI382588377
aa(lp2580
Vparentid
p2581
aI382576302
aa(lp2582
Vuser
p2583
aVCybercobra
p2584
aa(lp2585
Vtimestamp
p2586
ag15
((I2010
I9
I3
I1
I16
I18
I4
I246
I-1
t(dtRp2587
aa(lp2588
Vcomment
p2589
aV/* Wikinews */ not really relevant as WP accepts CC-BY-SA-only, non-GFDL content
p2590
aatRp2591
ag2
((lp2592
(lp2593
Vrevid
p2594
aI382576302
aa(lp2595
Vparentid
p2596
aI382572708
aa(lp2597
Vuser
p2598
aVFences and windows
p2599
aa(lp2600
Vtimestamp
p2601
ag15
((I2010
I9
I2
I23
I48
I36
I3
I245
I-1
t(dtRp2602
aa(lp2603
Vcomment
p2604
aVUndid revision 382572708 by [[Special:Contributions/Shooterwalker|Shooterwalker]] ([[User talk:Shooterwalker|talk]]) RV, meaning of this is unclear and the tone is poor, please discuss
p2605
aatRp2606
ag2
((lp2607
(lp2608
Vrevid
p2609
aI382572708
aa(lp2610
Vparentid
p2611
aI382468411
aa(lp2612
Vuser
p2613
aVShooterwalker
p2614
aa(lp2615
Vtimestamp
p2616
ag15
((I2010
I9
I2
I23
I22
I35
I3
I245
I-1
t(dtRp2617
aa(lp2618
Vcomment
p2619
aV/* Participants known for one event */
p2620
aatRp2621
ag2
((lp2622
(lp2623
Vrevid
p2624
aI382468411
aa(lp2625
Vparentid
p2626
aI379428461
aa(lp2627
Vuser
p2628
aV87.79.161.210
p2629
aa(lp2630
Vanon
p2631
aV
aa(lp2632
Vtimestamp
p2633
ag15
((I2010
I9
I2
I13
I7
I46
I3
I245
I-1
t(dtRp2634
aa(lp2635
Vcomment
p2636
aVjeez, retarded [[WP:Bolditis]] finds its way even into project space now?
p2637
aatRp2638
ag2
((lp2639
(lp2640
Vrevid
p2641
aI379428461
aa(lp2642
Vparentid
p2643
aI379427887
aa(lp2644
Vminor
p2645
aV
aa(lp2646
Vuser
p2647
aVL Kensington
p2648
aa(lp2649
Vtimestamp
p2650
ag15
((I2010
I8
I17
I17
I8
I26
I1
I229
I-1
t(dtRp2651
aa(lp2652
Vcomment
p2653
aVReverted edits by [[Special:Contributions/Abel metre|Abel metre]] ([[User talk:Abel metre|talk]]) to last revision by Cybercobra ([[WP:HG|HG]])
p2654
aatRp2655
ag2
((lp2656
(lp2657
Vrevid
p2658
aI379427887
aa(lp2659
Vparentid
p2660
aI377786297
aa(lp2661
Vuser
p2662
aVAbel metre
p2663
aa(lp2664
Vtimestamp
p2665
ag15
((I2010
I8
I17
I17
I4
I50
I1
I229
I-1
t(dtRp2666
aa(lp2667
Vcomment
p2668
aV/* Background */
p2669
aatRp2670
ag2
((lp2671
(lp2672
Vrevid
p2673
aI377786297
aa(lp2674
Vparentid
p2675
aI377726164
aa(lp2676
Vminor
p2677
aV
aa(lp2678
Vuser
p2679
aVCybercobra
p2680
aa(lp2681
Vtimestamp
p2682
ag15
((I2010
I8
I8
I8
I33
I10
I6
I220
I-1
t(dtRp2683
aa(lp2684
Vcomment
p2685
aV/* Criminal acts */ more accessible
p2686
aatRp2687
ag2
((lp2688
(lp2689
Vrevid
p2690
aI377726164
aa(lp2691
Vparentid
p2692
aI377696242
aa(lp2693
Vuser
p2694
aVLocation
p2695
aa(lp2696
Vtimestamp
p2697
ag15
((I2010
I8
I7
I23
I9
I47
I5
I219
I-1
t(dtRp2698
aa(lp2699
Vcomment
p2700
aV/* Criminal acts */
p2701
aatRp2702
ag2
((lp2703
(lp2704
Vrevid
p2705
aI377696242
aa(lp2706
Vparentid
p2707
aI377692283
aa(lp2708
Vuser
p2709
aVFences and windows
p2710
aa(lp2711
Vtimestamp
p2712
ag15
((I2010
I8
I7
I19
I28
I6
I5
I219
I-1
t(dtRp2713
aa(lp2714
Vcomment
p2715
aV/* Criminal acts */  Add see also, tweak. Does this section actually add anything??
p2716
aatRp2717
ag2
((lp2718
(lp2719
Vrevid
p2720
aI377692283
aa(lp2721
Vparentid
p2722
aI377691097
aa(lp2723
Vuser
p2724
aVLocation
p2725
aa(lp2726
Vtimestamp
p2727
ag15
((I2010
I8
I7
I18
I58
I42
I5
I219
I-1
t(dtRp2728
aa(lp2729
Vcomment
p2730
aV
aatRp2731
ag2
((lp2732
(lp2733
Vrevid
p2734
aI377691097
aa(lp2735
Vparentid
p2736
aI377590121
aa(lp2737
Vuser
p2738
aVLocation
p2739
aa(lp2740
Vtimestamp
p2741
ag15
((I2010
I8
I7
I18
I50
I20
I5
I219
I-1
t(dtRp2742
aa(lp2743
Vcomment
p2744
aV
aatRp2745
ag2
((lp2746
(lp2747
Vrevid
p2748
aI377590121
aa(lp2749
Vparentid
p2750
aI375481793
aa(lp2751
Vuser
p2752
aVLocation
p2753
aa(lp2754
Vtimestamp
p2755
ag15
((I2010
I8
I7
I3
I37
I55
I5
I219
I-1
t(dtRp2756
aa(lp2757
Vcomment
p2758
aV/* Criminal acts */ {{Inuse|section}}
p2759
aatRp2760
ag2
((lp2761
(lp2762
Vrevid
p2763
aI375481793
aa(lp2764
Vparentid
p2765
aI371891907
aa(lp2766
Vminor
p2767
aV
aa(lp2768
Vuser
p2769
aVNyttend
p2770
aa(lp2771
Vtimestamp
p2772
ag15
((I2010
I7
I26
I3
I30
I42
I0
I207
I-1
t(dtRp2773
aa(lp2774
Vcomment
p2775
aV/* Depth of coverage */ Hyphen
p2776
aatRp2777
ag2
((lp2778
(lp2779
Vrevid
p2780
aI371891907
aa(lp2781
Vparentid
p2782
aI365050980
aa(lp2783
Vuser
p2784
aVLocation
p2785
aa(lp2786
Vtimestamp
p2787
ag15
((I2010
I7
I5
I18
I57
I22
I0
I186
I-1
t(dtRp2788
aa(lp2789
Vcomment
p2790
aV/* Criminal acts */
p2791
aatRp2792
ag2
((lp2793
(lp2794
Vrevid
p2795
aI365050980
aa(lp2796
Vparentid
p2797
aI361807398
aa(lp2798
Vuser
p2799
aVFences and windows
p2800
aa(lp2801
Vtimestamp
p2802
ag15
((I2010
I5
I30
I17
I11
I35
I6
I150
I-1
t(dtRp2803
aa(lp2804
Vcomment
p2805
aVTag is stale
p2806
aatRp2807
ag2
((lp2808
(lp2809
Vrevid
p2810
aI361807398
aa(lp2811
Vparentid
p2812
aI354617250
aa(lp2813
Vuser
p2814
aVWiwaxia
p2815
aa(lp2816
Vtimestamp
p2817
ag15
((I2010
I5
I13
I2
I35
I26
I3
I133
I-1
t(dtRp2818
aa(lp2819
Vcomment
p2820
aVThe plural of "phenomenon" is "phenomena"
p2821
aatRp2822
ag2
((lp2823
(lp2824
Vrevid
p2825
aI354617250
aa(lp2826
Vparentid
p2827
aI354358251
aa(lp2828
Vminor
p2829
aV
aa(lp2830
Vuser
p2831
aVDunncon13
p2832
aa(lp2833
Vtimestamp
p2834
ag15
((I2010
I4
I7
I21
I56
I43
I2
I97
I-1
t(dtRp2835
aa(lp2836
Vcomment
p2837
aV/* Inclusion criteria */ fixed typo
p2838
aatRp2839
ag2
((lp2840
(lp2841
Vrevid
p2842
aI354358251
aa(lp2843
Vparentid
p2844
aI347847801
aa(lp2845
Vuser
p2846
aVEdison
p2847
aa(lp2848
Vtimestamp
p2849
ag15
((I2010
I4
I6
I17
I43
I5
I1
I96
I-1
t(dtRp2850
aa(lp2851
Vcomment
p2852
aV/* Inclusion criteria */ "Water cooler stories:" some catchy inconsequential ews item which people talk about the next day then forget
p2853
aatRp2854
ag2
((lp2855
(lp2856
Vrevid
p2857
aI347847801
aa(lp2858
Vparentid
p2859
aI347847604
aa(lp2860
Vminor
p2861
aV
aa(lp2862
Vuser
p2863
aVFT2
p2864
aa(lp2865
Vtimestamp
p2866
ag15
((I2010
I3
I5
I4
I33
I8
I4
I64
I-1
t(dtRp2867
aa(lp2868
Vcomment
p2869
aV/* Inclusion criteria */ shorten
p2870
aatRp2871
ag2
((lp2872
(lp2873
Vrevid
p2874
aI347847604
aa(lp2875
Vparentid
p2876
aI347846166
aa(lp2877
Vuser
p2878
aVFT2
p2879
aa(lp2880
Vtimestamp
p2881
ag15
((I2010
I3
I5
I4
I31
I25
I4
I64
I-1
t(dtRp2882
aa(lp2883
Vcomment
p2884
aV/* Inclusion criteria */ rmv "for encyclopdic purposes" per talk page
p2885
aatRp2886
ag2
((lp2887
(lp2888
Vrevid
p2889
aI347846166
aa(lp2890
Vparentid
p2891
aI347845333
aa(lp2892
Vminor
p2893
aV
aa(lp2894
Vuser
p2895
aVFT2
p2896
aa(lp2897
Vtimestamp
p2898
ag15
((I2010
I3
I5
I4
I17
I55
I4
I64
I-1
t(dtRp2899
aa(lp2900
Vcomment
p2901
aV/* Inclusion criteria */ edit list of examples
p2902
aatRp2903
ag2
((lp2904
(lp2905
Vrevid
p2906
aI347845333
aa(lp2907
Vparentid
p2908
aI347462564
aa(lp2909
Vuser
p2910
aVFT2
p2911
aa(lp2912
Vtimestamp
p2913
ag15
((I2010
I3
I5
I4
I10
I13
I4
I64
I-1
t(dtRp2914
aa(lp2915
Vcomment
p2916
aV/* Inclusion criteria */ Provide specifics (per talk page)
p2917
aatRp2918
ag2
((lp2919
(lp2920
Vrevid
p2921
aI347462564
aa(lp2922
Vparentid
p2923
aI347398073
aa(lp2924
Vuser
p2925
aVFT2
p2926
aa(lp2927
Vtimestamp
p2928
ag15
((I2010
I3
I3
I6
I32
I14
I2
I62
I-1
t(dtRp2929
aa(lp2930
Vcomment
p2931
aVGroup other circumstances together, for ease of reference. Minor reword to BLP1E for flow.
p2932
aatRp2933
ag2
((lp2934
(lp2935
Vrevid
p2936
aI347398073
aa(lp2937
Vparentid
p2938
aI347301090
aa(lp2939
Vuser
p2940
aVFT2
p2941
aa(lp2942
Vtimestamp
p2943
ag15
((I2010
I3
I2
I23
I33
I25
I1
I61
I-1
t(dtRp2944
aa(lp2945
Vcomment
p2946
aV/* Depth of coverage */ slight clearer wording
p2947
aatRp2948
ag2
((lp2949
(lp2950
Vrevid
p2951
aI347301090
aa(lp2952
Vparentid
p2953
aI347299646
aa(lp2954
Vuser
p2955
aVMjroots
p2956
aa(lp2957
Vtimestamp
p2958
ag15
((I2010
I3
I2
I14
I46
I29
I1
I61
I-1
t(dtRp2959
aa(lp2960
Vcomment
p2961
aV/* See also */ WP{RAILCRASH reverted to a proposed guideline per its talk page
p2962
aatRp2963
ag2
((lp2964
(lp2965
Vrevid
p2966
aI347299646
aa(lp2967
Vparentid
p2968
aI345854773
aa(lp2969
Vuser
p2970
aVFences and windows
p2971
aa(lp2972
Vtimestamp
p2973
ag15
((I2010
I3
I2
I14
I36
I18
I1
I61
I-1
t(dtRp2974
aa(lp2975
Vcomment
p2976
aV/* See also */  + a disputed guideline on rail crashes
p2977
aatRp2978
ag2
((lp2979
(lp2980
Vrevid
p2981
aI345854773
aa(lp2982
Vparentid
p2983
aI345854734
aa(lp2984
Vminor
p2985
aV
aa(lp2986
Vuser
p2987
aVMuffledThud
p2988
aa(lp2989
Vtimestamp
p2990
ag15
((I2010
I2
I23
I11
I6
I6
I1
I54
I-1
t(dtRp2991
aa(lp2992
Vcomment
p2993
aV/* Depth of coverage */  italics
p2994
aatRp2995
ag2
((lp2996
(lp2997
Vrevid
p2998
aI345854734
aa(lp2999
Vparentid
p3000
aI344835152
aa(lp3001
Vuser
p3002
aVMuffledThud
p3003
aa(lp3004
Vtimestamp
p3005
ag15
((I2010
I2
I23
I11
I5
I43
I1
I54
I-1
t(dtRp3006
aa(lp3007
Vcomment
p3008
aV/* Depth of coverage */  globalize a bit per [[WP:CSB]]
p3009
aatRp3010
ag2
((lp3011
(lp3012
Vrevid
p3013
aI344835152
aa(lp3014
Vparentid
p3015
aI344815663
aa(lp3016
Vuser
p3017
aVSuomi Finland 2009
p3018
aa(lp3019
Vtimestamp
p3020
ag15
((I2010
I2
I18
I16
I9
I22
I3
I49
I-1
t(dtRp3021
aa(lp3022
Vcomment
p3023
aV/* Inclusion criteria */ discussed under wrap up by late Jan sub-section.  Allows passage if one criteria not met which is still stricter than current practice
p3024
aatRp3025
ag2
((lp3026
(lp3027
Vrevid
p3028
aI344815663
aa(lp3029
Vparentid
p3030
aI344815375
aa(lp3031
Vminor
p3032
aV
aa(lp3033
Vuser
p3034
aVFT2
p3035
aa(lp3036
Vtimestamp
p3037
ag15
((I2010
I2
I18
I14
I8
I34
I3
I49
I-1
t(dtRp3038
aa(lp3039
Vcomment
p3040
aV/* Geographical scope */ duplicate word
p3041
aatRp3042
ag2
((lp3043
(lp3044
Vrevid
p3045
aI344815375
aa(lp3046
Vparentid
p3047
aI344814839
aa(lp3048
Vuser
p3049
aVFT2
p3050
aa(lp3051
Vtimestamp
p3052
ag15
((I2010
I2
I18
I14
I6
I18
I3
I49
I-1
t(dtRp3053
aa(lp3054
Vcomment
p3055
aVadd "or societal group" to clarify the impact may be across a widespread group rather than only a large physical region. For example a major effect on all disabled people, or all of a significant minority or ethnicity
p3056
aatRp3057
ag2
((lp3058
(lp3059
Vrevid
p3060
aI344814839
aa(lp3061
Vparentid
p3062
aI344814536
aa(lp3063
Vminor
p3064
aV
aa(lp3065
Vuser
p3066
aVFT2
p3067
aa(lp3068
Vtimestamp
p3069
ag15
((I2010
I2
I18
I14
I2
I13
I3
I49
I-1
t(dtRp3070
aa(lp3071
Vcomment
p3072
aV/* Geographical scope */ double "."
p3073
aatRp3074
ag2
((lp3075
(lp3076
Vrevid
p3077
aI344814536
aa(lp3078
Vparentid
p3079
aI344810674
aa(lp3080
Vuser
p3081
aVFT2
p3082
aa(lp3083
Vtimestamp
p3084
ag15
((I2010
I2
I18
I14
I0
I8
I3
I49
I-1
t(dtRp3085
aa(lp3086
Vcomment
p3087
aVGeographic scope and diversity of sources refactor - see talk page
p3088
aatRp3089
ag2
((lp3090
(lp3091
Vrevid
p3092
aI344810674
aa(lp3093
Vparentid
p3094
aI344809912
aa(lp3095
Vuser
p3096
aVFT2
p3097
aa(lp3098
Vtimestamp
p3099
ag15
((I2010
I2
I18
I13
I28
I55
I3
I49
I-1
t(dtRp3100
aa(lp3101
Vcomment
p3102
aV/* Geographical scope */ cannot say "national coverage makes notability likely" as most NOT#NEWS issues did gain national coverage. Rewrite in accordance with what the section seems to say.
p3103
aatRp3104
ag2
((lp3105
(lp3106
Vrevid
p3107
aI344809912
aa(lp3108
Vparentid
p3109
aI344808778
aa(lp3110
Vuser
p3111
aVFT2
p3112
aa(lp3113
Vtimestamp
p3114
ag15
((I2010
I2
I18
I13
I23
I2
I3
I49
I-1
t(dtRp3115
aa(lp3116
Vcomment
p3117
aV/* Background */ expand shortcuts and make this easier reading
p3118
aatRp3119
ag2
((lp3120
(lp3121
Vrevid
p3122
aI344808778
aa(lp3123
Vparentid
p3124
aI344807624
aa(lp3125
Vuser
p3126
aVFT2
p3127
aa(lp3128
Vtimestamp
p3129
ag15
((I2010
I2
I18
I13
I13
I45
I3
I49
I-1
t(dtRp3130
aa(lp3131
Vcomment
p3132
aVslight rewrite of background/inclusion criteria, for flow and brevity
p3133
aatRp3134
ag2
((lp3135
(lp3136
Vrevid
p3137
aI344807624
aa(lp3138
Vparentid
p3139
aI338015999
aa(lp3140
Vuser
p3141
aVFT2
p3142
aa(lp3143
Vtimestamp
p3144
ag15
((I2010
I2
I18
I13
I3
I52
I3
I49
I-1
t(dtRp3145
aa(lp3146
Vcomment
p3147
aV/* Lasting effects */ a precedent for something of /lasting/ significance", I think is meant.
p3148
aatRp3149
ag2
((lp3150
(lp3151
Vrevid
p3152
aI338015999
aa(lp3153
Vparentid
p3154
aI337308827
aa(lp3155
Vuser
p3156
aVSuomi Finland 2009
p3157
aa(lp3158
Vtimestamp
p3159
ag15
((I2010
I1
I15
I16
I18
I13
I4
I15
I-1
t(dtRp3160
aa(lp3161
Vcomment
p3162
aVfixing minor subtle probably unintended sentence, still need to decide if all criteria must be met as is being done on the talk page
p3163
aatRp3164
ag2
((lp3165
(lp3166
Vrevid
p3167
aI337308827
aa(lp3168
Vparentid
p3169
aI337308239
aa(lp3170
Vuser
p3171
aVCybercobra
p3172
aa(lp3173
Vtimestamp
p3174
ag15
((I2010
I1
I12
I2
I30
I27
I1
I12
I-1
t(dtRp3175
aa(lp3176
Vcomment
p3177
aVReverted [[WP:AGF|good faith]] edits by [[Special:Contributions/Suomi Finland 2009|Suomi Finland 2009]]; Breaks structure (see TOC). ([[WP:TW|TW]])
p3178
aatRp3179
ag2
((lp3180
(lp3181
Vrevid
p3182
aI337308239
aa(lp3183
Vparentid
p3184
aI337257836
aa(lp3185
Vuser
p3186
aVSuomi Finland 2009
p3187
aa(lp3188
Vtimestamp
p3189
ag15
((I2010
I1
I12
I2
I26
I35
I1
I12
I-1
t(dtRp3190
aa(lp3191
Vcomment
p3192
aVchanging font size slightly to reflect special nature of one sub-section
p3193
aatRp3194
ag2
((lp3195
(lp3196
Vrevid
p3197
aI337257836
aa(lp3198
Vparentid
p3199
aI337242137
aa(lp3200
Vuser
p3201
aVCybercobra
p3202
aa(lp3203
Vtimestamp
p3204
ag15
((I2010
I1
I11
I21
I27
I49
I0
I11
I-1
t(dtRp3205
aa(lp3206
Vcomment
p3207
aV/* Inclusion criteria */ presentation; I am neutral on the substantive change
p3208
aatRp3209
ag2
((lp3210
(lp3211
Vrevid
p3212
aI337242137
aa(lp3213
Vparentid
p3214
aI336530111
aa(lp3215
Vuser
p3216
aVSuomi Finland 2009
p3217
aa(lp3218
Vtimestamp
p3219
ag15
((I2010
I1
I11
I20
I6
I47
I0
I11
I-1
t(dtRp3220
aa(lp3221
Vcomment
p3222
aV/* Lasting effects */ discussed on talk, seemed to have genuine consensus and good reason to have
p3223
aatRp3224
ag2
((lp3225
(lp3226
Vrevid
p3227
aI336530111
aa(lp3228
Vparentid
p3229
aI336515798
aa(lp3230
Vuser
p3231
aVCybercobra
p3232
aa(lp3233
Vtimestamp
p3234
ag15
((I2010
I1
I8
I3
I5
I1
I4
I8
I-1
t(dtRp3235
aa(lp3236
Vcomment
p3237
aVreassert cosmetic change
p3238
aatRp3239
ag2
((lp3240
(lp3241
Vrevid
p3242
aI336515798
aa(lp3243
Vparentid
p3244
aI336515424
aa(lp3245
Vuser
p3246
aVSuomi Finland 2009
p3247
aa(lp3248
Vtimestamp
p3249
ag15
((I2010
I1
I8
I1
I23
I28
I4
I8
I-1
t(dtRp3250
aa(lp3251
Vcomment
p3252
aVtag
p3253
aatRp3254
ag2
((lp3255
(lp3256
Vrevid
p3257
aI336515424
aa(lp3258
Vparentid
p3259
aI336485426
aa(lp3260
Vuser
p3261
aVSuomi Finland 2009
p3262
aa(lp3263
Vtimestamp
p3264
ag15
((I2010
I1
I8
I1
I20
I54
I4
I8
I-1
t(dtRp3265
aa(lp3266
Vcomment
p3267
aVreverting to stable version and starting discussion on the far reaching changes made within the last few hours.
p3268
aatRp3269
ag2
((lp3270
(lp3271
Vrevid
p3272
aI336485426
aa(lp3273
Vparentid
p3274
aI336485159
aa(lp3275
Vuser
p3276
aVSuomi Finland 2009
p3277
aa(lp3278
Vtimestamp
p3279
ag15
((I2010
I1
I7
I22
I26
I13
I3
I7
I-1
t(dtRp3280
aa(lp3281
Vcomment
p3282
aVReverting back to Possible change #2 (Fences and Windows) changing the criteria language to not conflict with earlier phrase
p3283
aatRp3284
ag2
((lp3285
(lp3286
Vrevid
p3287
aI336485159
aa(lp3288
Vparentid
p3289
aI336473506
aa(lp3290
Vuser
p3291
aVSuomi Finland 2009
p3292
aa(lp3293
Vtimestamp
p3294
ag15
((I2010
I1
I7
I22
I24
I56
I3
I7
I-1
t(dtRp3295
aa(lp3296
Vcomment
p3297
aVPossible change #1 to eliminate conflict with further 5 sections
p3298
aatRp3299
ag2
((lp3300
(lp3301
Vrevid
p3302
aI336473506
aa(lp3303
Vparentid
p3304
aI336320427
aa(lp3305
Vuser
p3306
aVFences and windows
p3307
aa(lp3308
Vtimestamp
p3309
ag15
((I2010
I1
I7
I21
I21
I51
I3
I7
I-1
t(dtRp3310
aa(lp3311
Vcomment
p3312
aV/* Inclusion criteria */  Change summaries of the criteria to make clearer
p3313
aatRp3314
ag2
((lp3315
(lp3316
Vrevid
p3317
aI336320427
aa(lp3318
Vparentid
p3319
aI336311875
aa(lp3320
Vuser
p3321
aVCybercobra
p3322
aa(lp3323
Vtimestamp
p3324
ag15
((I2010
I1
I7
I1
I58
I52
I3
I7
I-1
t(dtRp3325
aa(lp3326
Vcomment
p3327
aVavoid use of page name; bold titular terms
p3328
aatRp3329
ag2
((lp3330
(lp3331
Vrevid
p3332
aI336311875
aa(lp3333
Vparentid
p3334
aI336310980
aa(lp3335
Vuser
p3336
aVFences and windows
p3337
aa(lp3338
Vtimestamp
p3339
ag15
((I2010
I1
I7
I1
I0
I51
I3
I7
I-1
t(dtRp3340
aa(lp3341
Vcomment
p3342
aV/* Depth of coverage */  Shortcut
p3343
aatRp3344
ag2
((lp3345
(lp3346
Vrevid
p3347
aI336310980
aa(lp3348
Vparentid
p3349
aI334763712
aa(lp3350
Vuser
p3351
aVFences and windows
p3352
aa(lp3353
Vtimestamp
p3354
ag15
((I2010
I1
I7
I0
I54
I43
I3
I7
I-1
t(dtRp3355
aa(lp3356
Vcomment
p3357
aV/* Inclusion criteria */  Highlighted requirements
p3358
aatRp3359
ag2
((lp3360
(lp3361
Vrevid
p3362
aI334763712
aa(lp3363
Vparentid
p3364
aI334762716
aa(lp3365
Vuser
p3366
aVAngryapathy
p3367
aa(lp3368
Vtimestamp
p3369
ag15
((I2009
I12
I29
I18
I36
I46
I1
I363
I-1
t(dtRp3370
aa(lp3371
Vcomment
p3372
aVremove vandalism
p3373
aatRp3374
ag2
((lp3375
(lp3376
Vrevid
p3377
aI334762716
aa(lp3378
Vparentid
p3379
aI334761783
aa(lp3380
Vuser
p3381
aVPleazzer123
p3382
aa(lp3383
Vtimestamp
p3384
ag15
((I2009
I12
I29
I18
I30
I1
I1
I363
I-1
t(dtRp3385
aa(lp3386
Vcomment
p3387
aV/* Inclusion criteria */
p3388
aatRp3389
ag2
((lp3390
(lp3391
Vrevid
p3392
aI334761783
aa(lp3393
Vparentid
p3394
aI334761623
aa(lp3395
Vuser
p3396
aVPleazzer123
p3397
aa(lp3398
Vtimestamp
p3399
ag15
((I2009
I12
I29
I18
I24
I8
I1
I363
I-1
t(dtRp3400
aa(lp3401
Vcomment
p3402
aV
aatRp3403
ag2
((lp3404
(lp3405
Vrevid
p3406
aI334761623
aa(lp3407
Vparentid
p3408
aI333568138
aa(lp3409
Vuser
p3410
aVPleazzer123
p3411
aa(lp3412
Vtimestamp
p3413
ag15
((I2009
I12
I29
I18
I23
I12
I1
I363
I-1
t(dtRp3414
aa(lp3415
Vcomment
p3416
aVFlorida State Seminoles, Mens basketball Center called the Civic Center, or the Donald L. Tucker Cener!
p3417
aatRp3418
ag2
((lp3419
(lp3420
Vrevid
p3421
aI333568138
aa(lp3422
Vparentid
p3423
aI333554057
aa(lp3424
Vuser
p3425
aVThe Wordsmith
p3426
aa(lp3427
Vtimestamp
p3428
ag15
((I2009
I12
I23
I15
I41
I12
I2
I357
I-1
t(dtRp3429
aa(lp3430
Vcomment
p3431
aV/* Inclusion criteria */ this guideline must be met *in addition to* the GNG. I think this reflects the consensus of people who supported the proposal. If i'm wrong, feel free to revert
p3432
aatRp3433
ag2
((lp3434
(lp3435
Vrevid
p3436
aI333554057
aa(lp3437
Vparentid
p3438
aI330586903
aa(lp3439
Vuser
p3440
aVBlueboar
p3441
aa(lp3442
Vtimestamp
p3443
ag15
((I2009
I12
I23
I13
I51
I30
I2
I357
I-1
t(dtRp3444
aa(lp3445
Vcomment
p3446
aV/* Background */ apparently it is not "proposed" any more
p3447
aatRp3448
ag2
((lp3449
(lp3450
Vrevid
p3451
aI330586903
aa(lp3452
Vparentid
p3453
aI330486175
aa(lp3454
Vuser
p3455
aVFences and windows
p3456
aa(lp3457
Vtimestamp
p3458
ag15
((I2009
I12
I9
I2
I8
I29
I2
I343
I-1
t(dtRp3459
aa(lp3460
Vcomment
p3461
aV/* Breaking news */  This doesn't need breaking into sections, the concept of anticipating notability is just one part of assessing breaking news articles that does not need highlighting
p3462
aatRp3463
ag2
((lp3464
(lp3465
Vrevid
p3466
aI330486175
aa(lp3467
Vparentid
p3468
aI330024099
aa(lp3469
Vuser
p3470
aVSebwite
p3471
aa(lp3472
Vtimestamp
p3473
ag15
((I2009
I12
I8
I17
I3
I49
I1
I342
I-1
t(dtRp3474
aa(lp3475
Vcomment
p3476
aV/* Breaking news */ replaced link to West Baltimore with link to old version, since this has been changed; provided new heading
p3477
aatRp3478
ag2
((lp3479
(lp3480
Vrevid
p3481
aI330024099
aa(lp3482
Vparentid
p3483
aI330023990
aa(lp3484
Vminor
p3485
aV
aa(lp3486
Vuser
p3487
aVJaymax
p3488
aa(lp3489
Vtimestamp
p3490
ag15
((I2009
I12
I6
I7
I31
I6
I6
I340
I-1
t(dtRp3491
aa(lp3492
Vcomment
p3493
aV/* Breaking news */ gah - fix my repeated 'exists'
p3494
aatRp3495
ag2
((lp3496
(lp3497
Vrevid
p3498
aI330023990
aa(lp3499
Vparentid
p3500
aI330023364
aa(lp3501
Vuser
p3502
aVJaymax
p3503
aa(lp3504
Vtimestamp
p3505
ag15
((I2009
I12
I6
I7
I29
I49
I6
I340
I-1
t(dtRp3506
aa(lp3507
Vcomment
p3508
aV/* Breaking news */ clarify use related ''existing'' article ''if one exists'' for breaking news
p3509
aatRp3510
ag2
((lp3511
(lp3512
Vrevid
p3513
aI330023364
aa(lp3514
Vparentid
p3515
aI330009323
aa(lp3516
Vuser
p3517
aVJaymax
p3518
aa(lp3519
Vtimestamp
p3520
ag15
((I2009
I12
I6
I7
I24
I17
I6
I340
I-1
t(dtRp3521
aa(lp3522
Vcomment
p3523
aV/* Wikinews */ Wikilink licences
p3524
aatRp3525
ag2
((lp3526
(lp3527
Vrevid
p3528
aI330009323
aa(lp3529
Vparentid
p3530
aI329754281
aa(lp3531
Vminor
p3532
aV
aa(lp3533
Vuser
p3534
aVCunard
p3535
aa(lp3536
Vtimestamp
p3537
ag15
((I2009
I12
I6
I5
I15
I43
I6
I340
I-1
t(dtRp3538
aa(lp3539
Vcomment
p3540
aVfixed capitalization and link
p3541
aatRp3542
ag2
((lp3543
(lp3544
Vrevid
p3545
aI329754281
aa(lp3546
Vparentid
p3547
aI329553731
aa(lp3548
Vuser
p3549
aVThaddeusB
p3550
aa(lp3551
Vtimestamp
p3552
ag15
((I2009
I12
I4
I22
I35
I20
I4
I338
I-1
t(dtRp3553
aa(lp3554
Vcomment
p3555
aV/* Lasting effects */ reword for clarity
p3556
aatRp3557
ag2
((lp3558
(lp3559
Vrevid
p3560
aI329553731
aa(lp3561
Vparentid
p3562
aI328985086
aa(lp3563
Vuser
p3564
aVLocation
p3565
aa(lp3566
Vtimestamp
p3567
ag15
((I2009
I12
I3
I22
I48
I11
I3
I337
I-1
t(dtRp3568
aa(lp3569
Vcomment
p3570
aV/* Diversity of sources */  per talk page
p3571
aatRp3572
ag2
((lp3573
(lp3574
Vrevid
p3575
aI328985086
aa(lp3576
Vparentid
p3577
aI328985048
aa(lp3578
Vminor
p3579
aV
aa(lp3580
Vuser
p3581
aVCybercobra
p3582
aa(lp3583
Vtimestamp
p3584
ag15
((I2009
I12
I1
I7
I10
I25
I1
I335
I-1
t(dtRp3585
aa(lp3586
Vcomment
p3587
aV/* Depth of coverage */ phraseology
p3588
aatRp3589
ag2
((lp3590
(lp3591
Vrevid
p3592
aI328985048
aa(lp3593
Vparentid
p3594
aI328982038
aa(lp3595
Vminor
p3596
aV
aa(lp3597
Vuser
p3598
aVCybercobra
p3599
aa(lp3600
Vtimestamp
p3601
ag15
((I2009
I12
I1
I7
I9
I52
I1
I335
I-1
t(dtRp3602
aa(lp3603
Vcomment
p3604
aV/* Breaking news */ formatting
p3605
aatRp3606
ag2
((lp3607
(lp3608
Vrevid
p3609
aI328982038
aa(lp3610
Vparentid
p3611
aI328972382
aa(lp3612
Vuser
p3613
aVCybercobra
p3614
aa(lp3615
Vtimestamp
p3616
ag15
((I2009
I12
I1
I6
I40
I16
I1
I335
I-1
t(dtRp3617
aa(lp3618
Vcomment
p3619
aV/* Inclusion criteria */ not just us I'd think
p3620
aatRp3621
ag2
((lp3622
(lp3623
Vrevid
p3624
aI328972382
aa(lp3625
Vparentid
p3626
aI328891672
aa(lp3627
Vuser
p3628
aVValley2city
p3629
aa(lp3630
Vtimestamp
p3631
ag15
((I2009
I12
I1
I5
I13
I32
I1
I335
I-1
t(dtRp3632
aa(lp3633
Vcomment
p3634
aVPromoting to Guideline Status. See talk page shortly for my rationale
p3635
aatRp3636
ag2
((lp3637
(lp3638
Vrevid
p3639
aI328891672
aa(lp3640
Vparentid
p3641
aI328873680
aa(lp3642
Vuser
p3643
aVCybercobra
p3644
aa(lp3645
Vtimestamp
p3646
ag15
((I2009
I11
I30
I22
I5
I12
I0
I334
I-1
t(dtRp3647
aa(lp3648
Vcomment
p3649
aV/* Geographical scope */ well, if they're all getting a mini-nutshell...
p3650
aatRp3651
ag2
((lp3652
(lp3653
Vrevid
p3654
aI328873680
aa(lp3655
Vparentid
p3656
aI328524558
aa(lp3657
Vuser
p3658
aVLocation
p3659
aa(lp3660
Vtimestamp
p3661
ag15
((I2009
I11
I30
I20
I40
I24
I0
I334
I-1
t(dtRp3662
aa(lp3663
Vcomment
p3664
aV/* Inclusion criteria */ highlighting major point of subsection consistent
p3665
aatRp3666
ag2
((lp3667
(lp3668
Vrevid
p3669
aI328524558
aa(lp3670
Vparentid
p3671
aI328502484
aa(lp3672
Vuser
p3673
aVLocation
p3674
aa(lp3675
Vtimestamp
p3676
ag15
((I2009
I11
I29
I4
I57
I29
I6
I333
I-1
t(dtRp3677
aa(lp3678
Vcomment
p3679
aVA useful link but I'm going to move it to "See also" because it does not specifically refer to the inclusion criteria.
p3680
aatRp3681
ag2
((lp3682
(lp3683
Vrevid
p3684
aI328502484
aa(lp3685
Vparentid
p3686
aI328417124
aa(lp3687
Vminor
p3688
aV
aa(lp3689
Vuser
p3690
aVFences and windows
p3691
aa(lp3692
Vtimestamp
p3693
ag15
((I2009
I11
I29
I2
I32
I5
I6
I333
I-1
t(dtRp3694
aa(lp3695
Vcomment
p3696
aV/* Lasting effects */  Possibly -> Probably
p3697
aatRp3698
ag2
((lp3699
(lp3700
Vrevid
p3701
aI328417124
aa(lp3702
Vparentid
p3703
aI328415592
aa(lp3704
Vuser
p3705
aVFences and windows
p3706
aa(lp3707
Vtimestamp
p3708
ag15
((I2009
I11
I28
I18
I2
I17
I5
I332
I-1
t(dtRp3709
aa(lp3710
Vcomment
p3711
aV/* Lasting effects */  Clarified how this applies to recent events
p3712
aatRp3713
ag2
((lp3714
(lp3715
Vrevid
p3716
aI328415592
aa(lp3717
Vparentid
p3718
aI328330448
aa(lp3719
Vuser
p3720
aVFences and windows
p3721
aa(lp3722
Vtimestamp
p3723
ag15
((I2009
I11
I28
I17
I53
I15
I5
I332
I-1
t(dtRp3724
aa(lp3725
Vcomment
p3726
aV/* Duration of coverage */  Edits to clarify the meaning of this section per talk page discussion
p3727
aatRp3728
ag2
((lp3729
(lp3730
Vrevid
p3731
aI328330448
aa(lp3732
Vparentid
p3733
aI327995605
aa(lp3734
Vuser
p3735
aVCybercobra
p3736
aa(lp3737
Vtimestamp
p3738
ag15
((I2009
I11
I28
I5
I49
I24
I5
I332
I-1
t(dtRp3739
aa(lp3740
Vcomment
p3741
aV/* Inclusion criteria */ does not jive with current "Geographical scope" wording
p3742
aatRp3743
ag2
((lp3744
(lp3745
Vrevid
p3746
aI327995605
aa(lp3747
Vparentid
p3748
aI327944162
aa(lp3749
Vuser
p3750
aVLocation
p3751
aa(lp3752
Vtimestamp
p3753
ag15
((I2009
I11
I26
I5
I38
I59
I3
I330
I-1
t(dtRp3754
aa(lp3755
Vcomment
p3756
aVmajor rewording per Talk page
p3757
aatRp3758
ag2
((lp3759
(lp3760
Vrevid
p3761
aI327944162
aa(lp3762
Vparentid
p3763
aI327426500
aa(lp3764
Vuser
p3765
aVLocation
p3766
aa(lp3767
Vtimestamp
p3768
ag15
((I2009
I11
I25
I22
I54
I18
I2
I329
I-1
t(dtRp3769
aa(lp3770
Vcomment
p3771
aVmoved the wikilink to an earlier reference
p3772
aatRp3773
ag2
((lp3774
(lp3775
Vrevid
p3776
aI327426500
aa(lp3777
Vparentid
p3778
aI327426341
aa(lp3779
Vuser
p3780
aVCybercobra
p3781
aa(lp3782
Vtimestamp
p3783
ag15
((I2009
I11
I23
I6
I15
I25
I0
I327
I-1
t(dtRp3784
aa(lp3785
Vcomment
p3786
aV/* Inclusion criteria */ bullet points -> indents
p3787
aatRp3788
ag2
((lp3789
(lp3790
Vrevid
p3791
aI327426341
aa(lp3792
Vparentid
p3793
aI327412830
aa(lp3794
Vuser
p3795
aVCybercobra
p3796
aa(lp3797
Vtimestamp
p3798
ag15
((I2009
I11
I23
I6
I13
I39
I0
I327
I-1
t(dtRp3799
aa(lp3800
Vcomment
p3801
aV/* Geographical scope */ moderate, feel free to [[WP:BRD]]; remove [[WP:LOCAL]] ref, it's about places, not events
p3802
aatRp3803
ag2
((lp3804
(lp3805
Vrevid
p3806
aI327412830
aa(lp3807
Vparentid
p3808
aI327361826
aa(lp3809
Vuser
p3810
aVLocation
p3811
aa(lp3812
Vtimestamp
p3813
ag15
((I2009
I11
I23
I4
I17
I18
I0
I327
I-1
t(dtRp3814
aa(lp3815
Vcomment
p3816
aV
aatRp3817
ag2
((lp3818
(lp3819
Vrevid
p3820
aI327361826
aa(lp3821
Vparentid
p3822
aI327359086
aa(lp3823
Vminor
p3824
aV
aa(lp3825
Vuser
p3826
aVLocation
p3827
aa(lp3828
Vtimestamp
p3829
ag15
((I2009
I11
I22
I22
I28
I59
I6
I326
I-1
t(dtRp3830
aa(lp3831
Vcomment
p3832
aV/* Lasting effects */
p3833
aatRp3834
ag2
((lp3835
(lp3836
Vrevid
p3837
aI327359086
aa(lp3838
Vparentid
p3839
aI326802568
aa(lp3840
Vminor
p3841
aV
aa(lp3842
Vuser
p3843
aVLocation
p3844
aa(lp3845
Vtimestamp
p3846
ag15
((I2009
I11
I22
I22
I12
I34
I6
I326
I-1
t(dtRp3847
aa(lp3848
Vcomment
p3849
aV/* Breaking news */
p3850
aatRp3851
ag2
((lp3852
(lp3853
Vrevid
p3854
aI326802568
aa(lp3855
Vparentid
p3856
aI326794336
aa(lp3857
Vuser
p3858
aVThe Wordsmith
p3859
aa(lp3860
Vtimestamp
p3861
ag15
((I2009
I11
I19
I21
I19
I15
I3
I323
I-1
t(dtRp3862
aa(lp3863
Vcomment
p3864
aVReverted [[WP:AGF|good faith]] edits by [[Special:Contributions/Suomi Finland 2009|Suomi Finland 2009]]; This idea is already present in another section. ([[WP:TW|TW]])
p3865
aatRp3866
ag2
((lp3867
(lp3868
Vrevid
p3869
aI326794336
aa(lp3870
Vparentid
p3871
aI326668963
aa(lp3872
Vuser
p3873
aVSuomi Finland 2009
p3874
aa(lp3875
Vtimestamp
p3876
ag15
((I2009
I11
I19
I20
I32
I29
I3
I323
I-1
t(dtRp3877
aa(lp3878
Vcomment
p3879
aV/* Geographical scope */ inserted
p3880
aatRp3881
ag2
((lp3882
(lp3883
Vrevid
p3884
aI326668963
aa(lp3885
Vparentid
p3886
aI326595368
aa(lp3887
Vuser
p3888
aVCybercobra
p3889
aa(lp3890
Vtimestamp
p3891
ag15
((I2009
I11
I19
I3
I39
I24
I3
I323
I-1
t(dtRp3892
aa(lp3893
Vcomment
p3894
aV/* Geographical scope */ I call BS on the amount of reliable sources being irrelevant
p3895
aatRp3896
ag2
((lp3897
(lp3898
Vrevid
p3899
aI326595368
aa(lp3900
Vparentid
p3901
aI326592609
aa(lp3902
Vuser
p3903
aVBigtimepeace
p3904
aa(lp3905
Vtimestamp
p3906
ag15
((I2009
I11
I18
I20
I4
I41
I2
I322
I-1
t(dtRp3907
aa(lp3908
Vcomment
p3909
aV/* Geographical scope */ further soften language here, though we might want to specify other types of exceptions beyond elections, see new section on talk page
p3910
aatRp3911
ag2
((lp3912
(lp3913
Vrevid
p3914
aI326592609
aa(lp3915
Vparentid
p3916
aI326503005
aa(lp3917
Vuser
p3918
aVThe Wordsmith
p3919
aa(lp3920
Vtimestamp
p3921
ag15
((I2009
I11
I18
I19
I49
I38
I2
I322
I-1
t(dtRp3922
aa(lp3923
Vcomment
p3924
aV/* Geographical scope */ softening wording of section per concerns on Talk page
p3925
aatRp3926
ag2
((lp3927
(lp3928
Vrevid
p3929
aI326503005
aa(lp3930
Vparentid
p3931
aI326502376
aa(lp3932
Vuser
p3933
aVCybercobra
p3934
aa(lp3935
Vtimestamp
p3936
ag15
((I2009
I11
I18
I8
I47
I42
I2
I322
I-1
t(dtRp3937
aa(lp3938
Vcomment
p3939
aV/* Wikinews */ vice-versa is fine however
p3940
aatRp3941
ag2
((lp3942
(lp3943
Vrevid
p3944
aI326502376
aa(lp3945
Vparentid
p3946
aI326364223
aa(lp3947
Vuser
p3948
aVCybercobra
p3949
aa(lp3950
Vtimestamp
p3951
ag15
((I2009
I11
I18
I8
I40
I36
I2
I322
I-1
t(dtRp3952
aa(lp3953
Vcomment
p3954
aVsince there's Category:Fictional events
p3955
aatRp3956
ag2
((lp3957
(lp3958
Vrevid
p3959
aI326364223
aa(lp3960
Vparentid
p3961
aI326358780
aa(lp3962
Vuser
p3963
aVHiding
p3964
aa(lp3965
Vtimestamp
p3966
ag15
((I2009
I11
I17
I16
I20
I5
I1
I321
I-1
t(dtRp3967
aa(lp3968
Vcomment
p3969
aV/* Geographical scope */ rem link to failed proposal
p3970
aatRp3971
ag2
((lp3972
(lp3973
Vrevid
p3974
aI326358780
aa(lp3975
Vparentid
p3976
aI326266876
aa(lp3977
Vminor
p3978
aV
aa(lp3979
Vuser
p3980
aVBlurpeace
p3981
aa(lp3982
Vtimestamp
p3983
ag15
((I2009
I11
I17
I15
I45
I6
I1
I321
I-1
t(dtRp3984
aa(lp3985
Vcomment
p3986
aV/* Routine coverage */ spacing
p3987
aatRp3988
ag2
((lp3989
(lp3990
Vrevid
p3991
aI326266876
aa(lp3992
Vparentid
p3993
aI326253523
aa(lp3994
Vuser
p3995
aVFences and windows
p3996
aa(lp3997
Vtimestamp
p3998
ag15
((I2009
I11
I17
I1
I29
I22
I1
I321
I-1
t(dtRp3999
aa(lp4000
Vcomment
p4001
aV/* Breaking news */  Minor addition to note that a delay to nomination for deletion may result in nomination being seen to be unnecessary, per talk comments.
p4002
aatRp4003
ag2
((lp4004
(lp4005
Vrevid
p4006
aI326253523
aa(lp4007
Vparentid
p4008
aI326238782
aa(lp4009
Vuser
p4010
aVThe Wordsmith
p4011
aa(lp4012
Vtimestamp
p4013
ag15
((I2009
I11
I17
I0
I5
I53
I1
I321
I-1
t(dtRp4014
aa(lp4015
Vcomment
p4016
aVmanually undid most of Location's edit per talk page, and clarified criteria further
p4017
aatRp4018
ag2
((lp4019
(lp4020
Vrevid
p4021
aI326238782
aa(lp4022
Vparentid
p4023
aI326236171
aa(lp4024
Vuser
p4025
aVMasem
p4026
aa(lp4027
Vtimestamp
p4028
ag15
((I2009
I11
I16
I22
I34
I20
I0
I320
I-1
t(dtRp4029
aa(lp4030
Vcomment
p4031
aV/* Depth of coverage */ shows are italized.
p4032
aatRp4033
ag2
((lp4034
(lp4035
Vrevid
p4036
aI326236171
aa(lp4037
Vparentid
p4038
aI326231667
aa(lp4039
Vuser
p4040
aVCybercobra
p4041
aa(lp4042
Vtimestamp
p4043
ag15
((I2009
I11
I16
I22
I19
I35
I0
I320
I-1
t(dtRp4044
aa(lp4045
Vcomment
p4046
aV/* Sensationalism */ +"may"
p4047
aatRp4048
ag2
((lp4049
(lp4050
Vrevid
p4051
aI326231667
aa(lp4052
Vparentid
p4053
aI326222573
aa(lp4054
Vuser
p4055
aVLocation
p4056
aa(lp4057
Vtimestamp
p4058
ag15
((I2009
I11
I16
I21
I53
I53
I0
I320
I-1
t(dtRp4059
aa(lp4060
Vcomment
p4061
aV/* Inclusion criteria */  I will discuss on the talk page,
p4062
aatRp4063
ag2
((lp4064
(lp4065
Vrevid
p4066
aI326222573
aa(lp4067
Vparentid
p4068
aI326101987
aa(lp4069
Vuser
p4070
aVLocation
p4071
aa(lp4072
Vtimestamp
p4073
ag15
((I2009
I11
I16
I20
I58
I17
I0
I320
I-1
t(dtRp4074
aa(lp4075
Vcomment
p4076
aV
aatRp4077
ag2
((lp4078
(lp4079
Vrevid
p4080
aI326101987
aa(lp4081
Vparentid
p4082
aI326095280
aa(lp4083
Vminor
p4084
aV
aa(lp4085
Vuser
p4086
aVThe Wordsmith
p4087
aa(lp4088
Vtimestamp
p4089
ag15
((I2009
I11
I16
I3
I53
I12
I0
I320
I-1
t(dtRp4090
aa(lp4091
Vcomment
p4092
aVmoved [[Wikipedia:Notability (news events)]] to [[Wikipedia:Notability (events)]]: per Talk Page, "Event" is clear, while "news event" is poorly defined.
p4093
aatRp4094
ag2
((lp4095
(lp4096
Vrevid
p4097
aI326095280
aa(lp4098
Vparentid
p4099
aI326095204
aa(lp4100
Vuser
p4101
aVLocation
p4102
aa(lp4103
Vtimestamp
p4104
ag15
((I2009
I11
I16
I2
I59
I26
I0
I320
I-1
t(dtRp4105
aa(lp4106
Vcomment
p4107
aV/* Participants */  per talk
p4108
aatRp4109
ag2
((lp4110
(lp4111
Vrevid
p4112
aI326095204
aa(lp4113
Vparentid
p4114
aI325774481
aa(lp4115
Vuser
p4116
aVLocation
p4117
aa(lp4118
Vtimestamp
p4119
ag15
((I2009
I11
I16
I2
I58
I48
I0
I320
I-1
t(dtRp4120
aa(lp4121
Vcomment
p4122
aV/* Depth of coverage */  per talk
p4123
aatRp4124
ag2
((lp4125
(lp4126
Vrevid
p4127
aI325774481
aa(lp4128
Vparentid
p4129
aI325724008
aa(lp4130
Vuser
p4131
aVRusty Cashman
p4132
aa(lp4133
Vtimestamp
p4134
ag15
((I2009
I11
I14
I10
I6
I58
I5
I318
I-1
t(dtRp4135
aa(lp4136
Vcomment
p4137
aV/* Routine coverage */  slight change in wording emphasis - And finally is really a broadcast not a print term
p4138
aatRp4139
ag2
((lp4140
(lp4141
Vrevid
p4142
aI325724008
aa(lp4143
Vparentid
p4144
aI325696149
aa(lp4145
Vuser
p4146
aVFences and windows
p4147
aa(lp4148
Vtimestamp
p4149
ag15
((I2009
I11
I14
I1
I32
I34
I5
I318
I-1
t(dtRp4150
aa(lp4151
Vcomment
p4152
aV/* Routine coverage */  Added note about "And finally" stories
p4153
aatRp4154
ag2
((lp4155
(lp4156
Vrevid
p4157
aI325696149
aa(lp4158
Vparentid
p4159
aI325674031
aa(lp4160
Vuser
p4161
aVFences and windows
p4162
aa(lp4163
Vtimestamp
p4164
ag15
((I2009
I11
I13
I22
I9
I32
I4
I317
I-1
t(dtRp4165
aa(lp4166
Vcomment
p4167
aVSubtle change to replace link to [[news]] with link to "event" entry on Wiktionary, to better suggest what the guideline is about, link to news later.
p4168
aatRp4169
ag2
((lp4170
(lp4171
Vrevid
p4172
aI325674031
aa(lp4173
Vparentid
p4174
aI325673171
aa(lp4175
Vuser
p4176
aVThe Wordsmith
p4177
aa(lp4178
Vtimestamp
p4179
ag15
((I2009
I11
I13
I19
I53
I34
I4
I317
I-1
t(dtRp4180
aa(lp4181
Vcomment
p4182
aV/* Inclusion criteria */ small restructuring of section to clarify exactly what the criteria are
p4183
aatRp4184
ag2
((lp4185
(lp4186
Vrevid
p4187
aI325673171
aa(lp4188
Vparentid
p4189
aI325672625
aa(lp4190
Vminor
p4191
aV
aa(lp4192
Vuser
p4193
aVThe Wordsmith
p4194
aa(lp4195
Vtimestamp
p4196
ag15
((I2009
I11
I13
I19
I47
I58
I4
I317
I-1
t(dtRp4197
aa(lp4198
Vcomment
p4199
aVmove sensationalism section from inclusion criteria to its own section
p4200
aatRp4201
ag2
((lp4202
(lp4203
Vrevid
p4204
aI325672625
aa(lp4205
Vparentid
p4206
aI325669365
aa(lp4207
Vminor
p4208
aV
aa(lp4209
Vuser
p4210
aVThe Wordsmith
p4211
aa(lp4212
Vtimestamp
p4213
ag15
((I2009
I11
I13
I19
I44
I35
I4
I317
I-1
t(dtRp4214
aa(lp4215
Vcomment
p4216
aV/* Inclusion guidelines */ Inclusion guidelines ---> Inclusion criteria
p4217
aatRp4218
ag2
((lp4219
(lp4220
Vrevid
p4221
aI325669365
aa(lp4222
Vparentid
p4223
aI325666605
aa(lp4224
Vuser
p4225
aVRusty Cashman
p4226
aa(lp4227
Vtimestamp
p4228
ag15
((I2009
I11
I13
I19
I23
I49
I4
I317
I-1
t(dtRp4229
aa(lp4230
Vcomment
p4231
aV/* Routine coverage */  strengthen addition a little.
p4232
aatRp4233
ag2
((lp4234
(lp4235
Vrevid
p4236
aI325666605
aa(lp4237
Vparentid
p4238
aI325575219
aa(lp4239
Vuser
p4240
aVRusty Cashman
p4241
aa(lp4242
Vtimestamp
p4243
ag15
((I2009
I11
I13
I19
I6
I16
I4
I317
I-1
t(dtRp4244
aa(lp4245
Vcomment
p4246
aV/* Routine coverage */  I think we should mention humorous and human interest stories as being particularly non notable
p4247
aatRp4248
ag2
((lp4249
(lp4250
Vrevid
p4251
aI325575219
aa(lp4252
Vparentid
p4253
aI325574658
aa(lp4254
Vuser
p4255
aVThe Wordsmith
p4256
aa(lp4257
Vtimestamp
p4258
ag15
((I2009
I11
I13
I5
I58
I24
I4
I317
I-1
t(dtRp4259
aa(lp4260
Vcomment
p4261
aVattempt at clarifying nutshell
p4262
aatRp4263
ag2
((lp4264
(lp4265
Vrevid
p4266
aI325574658
aa(lp4267
Vparentid
p4268
aI325528619
aa(lp4269
Vuser
p4270
aVThe Wordsmith
p4271
aa(lp4272
Vtimestamp
p4273
ag15
((I2009
I11
I13
I5
I51
I54
I4
I317
I-1
t(dtRp4274
aa(lp4275
Vcomment
p4276
aVfix potentially [[WP:BITE|BITEy]] sentence per concern raised on talk page
p4277
aatRp4278
ag2
((lp4279
(lp4280
Vrevid
p4281
aI325528619
aa(lp4282
Vparentid
p4283
aI325485449
aa(lp4284
Vuser
p4285
aVFences and windows
p4286
aa(lp4287
Vtimestamp
p4288
ag15
((I2009
I11
I12
I23
I36
I47
I3
I316
I-1
t(dtRp4289
aa(lp4290
Vcomment
p4291
aV/* Breaking news */  Expanding point about delaying deletion nominations
p4292
aatRp4293
ag2
((lp4294
(lp4295
Vrevid
p4296
aI325485449
aa(lp4297
Vparentid
p4298
aI325453490
aa(lp4299
Vuser
p4300
aVSuomi Finland 2009
p4301
aa(lp4302
Vtimestamp
p4303
ag15
((I2009
I11
I12
I19
I32
I54
I3
I316
I-1
t(dtRp4304
aa(lp4305
Vcomment
p4306
aV/* Inclusion guidelines */ added shortcut
p4307
aatRp4308
ag2
((lp4309
(lp4310
Vrevid
p4311
aI325453490
aa(lp4312
Vparentid
p4313
aI325452307
aa(lp4314
Vuser
p4315
aVThe Wordsmith
p4316
aa(lp4317
Vtimestamp
p4318
ag15
((I2009
I11
I12
I16
I9
I33
I3
I316
I-1
t(dtRp4319
aa(lp4320
Vcomment
p4321
aVReverted to revision 325147937 by [[Special:Contributions/Fences and windows|Fences and windows]]; The template is the correct one to use for policies or guidelines. We don't need to be messing around with substing and modifying templates when we hav
p4322
aatRp4323
ag2
((lp4324
(lp4325
Vrevid
p4326
aI325452307
aa(lp4327
Vparentid
p4328
aI325452171
aa(lp4329
Vuser
p4330
aVSuomi Finland 2009
p4331
aa(lp4332
Vtimestamp
p4333
ag15
((I2009
I11
I12
I16
I1
I52
I3
I316
I-1
t(dtRp4334
aa(lp4335
Vcomment
p4336
aVtypo
p4337
aatRp4338
ag2
((lp4339
(lp4340
Vrevid
p4341
aI325452171
aa(lp4342
Vparentid
p4343
aI325147937
aa(lp4344
Vuser
p4345
aVSuomi Finland 2009
p4346
aa(lp4347
Vtimestamp
p4348
ag15
((I2009
I11
I12
I16
I0
I56
I3
I316
I-1
t(dtRp4349
aa(lp4350
Vcomment
p4351
aVtrying to fix per talk page
p4352
aatRp4353
ag2
((lp4354
(lp4355
Vrevid
p4356
aI325147937
aa(lp4357
Vparentid
p4358
aI325147364
aa(lp4359
Vuser
p4360
aVFences and windows
p4361
aa(lp4362
Vtimestamp
p4363
ag15
((I2009
I11
I10
I23
I58
I6
I1
I314
I-1
t(dtRp4364
aa(lp4365
Vcomment
p4366
aVRfC tag goes on talk.
p4367
aatRp4368
ag2
((lp4369
(lp4370
Vrevid
p4371
aI325147364
aa(lp4372
Vparentid
p4373
aI325125185
aa(lp4374
Vuser
p4375
aVFences and windows
p4376
aa(lp4377
Vtimestamp
p4378
ag15
((I2009
I11
I10
I23
I54
I38
I1
I314
I-1
t(dtRp4379
aa(lp4380
Vcomment
p4381
aV/* See also */  Link to "In the news"
p4382
aatRp4383
ag2
((lp4384
(lp4385
Vrevid
p4386
aI325125185
aa(lp4387
Vparentid
p4388
aI325125010
aa(lp4389
Vminor
p4390
aV
aa(lp4391
Vuser
p4392
aVCybercobra
p4393
aa(lp4394
Vtimestamp
p4395
ag15
((I2009
I11
I10
I21
I50
I14
I1
I314
I-1
t(dtRp4396
aa(lp4397
Vcomment
p4398
aV/* Inclusion guidelines */ serial ,
p4399
aatRp4400
ag2
((lp4401
(lp4402
Vrevid
p4403
aI325125010
aa(lp4404
Vparentid
p4405
aI325124901
aa(lp4406
Vuser
p4407
aVCybercobra
p4408
aa(lp4409
Vtimestamp
p4410
ag15
((I2009
I11
I10
I21
I49
I22
I1
I314
I-1
t(dtRp4411
aa(lp4412
Vcomment
p4413
aV/* Depth of coverage */ ref tags
p4414
aatRp4415
ag2
((lp4416
(lp4417
Vrevid
p4418
aI325124901
aa(lp4419
Vparentid
p4420
aI325124732
aa(lp4421
Vuser
p4422
aVCybercobra
p4423
aa(lp4424
Vtimestamp
p4425
ag15
((I2009
I11
I10
I21
I48
I49
I1
I314
I-1
t(dtRp4426
aa(lp4427
Vcomment
p4428
aV/* Routine coverage */ ref tags
p4429
aatRp4430
ag2
((lp4431
(lp4432
Vrevid
p4433
aI325124732
aa(lp4434
Vparentid
p4435
aI325123228
aa(lp4436
Vuser
p4437
aVCybercobra
p4438
aa(lp4439
Vtimestamp
p4440
ag15
((I2009
I11
I10
I21
I47
I56
I1
I314
I-1
t(dtRp4441
aa(lp4442
Vcomment
p4443
aV/* See also */ I hate with a passion raw external links
p4444
aatRp4445
ag2
((lp4446
(lp4447
Vrevid
p4448
aI325123228
aa(lp4449
Vparentid
p4450
aI325094311
aa(lp4451
Vuser
p4452
aVCybercobra
p4453
aa(lp4454
Vtimestamp
p4455
ag15
((I2009
I11
I10
I21
I39
I58
I1
I314
I-1
t(dtRp4456
aa(lp4457
Vcomment
p4458
aV/* See also */ kinda odd having this here
p4459
aatRp4460
ag2
((lp4461
(lp4462
Vrevid
p4463
aI325094311
aa(lp4464
Vparentid
p4465
aI325090893
aa(lp4466
Vuser
p4467
aVFences and windows
p4468
aa(lp4469
Vtimestamp
p4470
ag15
((I2009
I11
I10
I19
I3
I1
I1
I314
I-1
t(dtRp4471
aa(lp4472
Vcomment
p4473
aV/* Depth of coverage */  Removing this definition of routine reporting as it is weak on reflection: "and that is written by 'beat reporters' rather than columnists[http://www.ncbi.nlm.nih.gov/pmc/articles/PMC2585242/]"
p4474
aatRp4475
ag2
((lp4476
(lp4477
Vrevid
p4478
aI325090893
aa(lp4479
Vparentid
p4480
aI325086002
aa(lp4481
Vuser
p4482
aVThe Wordsmith
p4483
aa(lp4484
Vtimestamp
p4485
ag15
((I2009
I11
I10
I18
I44
I57
I1
I314
I-1
t(dtRp4486
aa(lp4487
Vcomment
p4488
aV/* Routine coverage */ rm confusing table
p4489
aatRp4490
ag2
((lp4491
(lp4492
Vrevid
p4493
aI325086002
aa(lp4494
Vparentid
p4495
aI325084777
aa(lp4496
Vuser
p4497
aVFences and windows
p4498
aa(lp4499
Vtimestamp
p4500
ag15
((I2009
I11
I10
I18
I17
I4
I1
I314
I-1
t(dtRp4501
aa(lp4502
Vcomment
p4503
aV/* Breaking news */  Reworked anticipation section slightly, to include a draft note that articles about major unexpected or unprecedented events tend to be kept
p4504
aatRp4505
ag2
((lp4506
(lp4507
Vrevid
p4508
aI325084777
aa(lp4509
Vparentid
p4510
aI325079648
aa(lp4511
Vuser
p4512
aVThe Wordsmith
p4513
aa(lp4514
Vtimestamp
p4515
ag15
((I2009
I11
I10
I18
I9
I34
I1
I314
I-1
t(dtRp4516
aa(lp4517
Vcomment
p4518
aVopening RFC
p4519
aatRp4520
ag2
((lp4521
(lp4522
Vrevid
p4523
aI325079648
aa(lp4524
Vparentid
p4525
aI325079194
aa(lp4526
Vminor
p4527
aV
aa(lp4528
Vuser
p4529
aVThe Wordsmith
p4530
aa(lp4531
Vtimestamp
p4532
ag15
((I2009
I11
I10
I17
I40
I51
I1
I314
I-1
t(dtRp4533
aa(lp4534
Vcomment
p4535
aV/* Diversity of sources */ formatting and phrasing
p4536
aatRp4537
ag2
((lp4538
(lp4539
Vrevid
p4540
aI325079194
aa(lp4541
Vparentid
p4542
aI325067561
aa(lp4543
Vuser
p4544
aVThe Wordsmith
p4545
aa(lp4546
Vtimestamp
p4547
ag15
((I2009
I11
I10
I17
I38
I10
I1
I314
I-1
t(dtRp4548
aa(lp4549
Vcomment
p4550
aVadd shortcut
p4551
aatRp4552
ag2
((lp4553
(lp4554
Vrevid
p4555
aI325067561
aa(lp4556
Vparentid
p4557
aI324875633
aa(lp4558
Vuser
p4559
aVFences and windows
p4560
aa(lp4561
Vtimestamp
p4562
ag15
((I2009
I11
I10
I16
I29
I18
I1
I314
I-1
t(dtRp4563
aa(lp4564
Vcomment
p4565
aV/* See also */  Added link to [[WP:AIRCRASH]]
p4566
aatRp4567
ag2
((lp4568
(lp4569
Vrevid
p4570
aI324875633
aa(lp4571
Vparentid
p4572
aI324875442
aa(lp4573
Vminor
p4574
aV
aa(lp4575
Vuser
p4576
aVSebwite
p4577
aa(lp4578
Vtimestamp
p4579
ag15
((I2009
I11
I9
I17
I57
I18
I0
I313
I-1
t(dtRp4580
aa(lp4581
Vcomment
p4582
aV/* Breaking news */ single shortcut template
p4583
aatRp4584
ag2
((lp4585
(lp4586
Vrevid
p4587
aI324875442
aa(lp4588
Vparentid
p4589
aI324504050
aa(lp4590
Vuser
p4591
aVSebwite
p4592
aa(lp4593
Vtimestamp
p4594
ag15
((I2009
I11
I9
I17
I56
I12
I0
I313
I-1
t(dtRp4595
aa(lp4596
Vcomment
p4597
aV/* Breaking news */ reported plan was against George W. Bush
p4598
aatRp4599
ag2
((lp4600
(lp4601
Vrevid
p4602
aI324504050
aa(lp4603
Vparentid
p4604
aI324503621
aa(lp4605
Vuser
p4606
aVFences and windows
p4607
aa(lp4608
Vtimestamp
p4609
ag15
((I2009
I11
I7
I19
I18
I34
I5
I311
I-1
t(dtRp4610
aa(lp4611
Vcomment
p4612
aV/* Routine coverage */  Removed "Non-routine coverage may include" as it is too vague to be useful
p4613
aatRp4614
ag2
((lp4615
(lp4616
Vrevid
p4617
aI324503621
aa(lp4618
Vparentid
p4619
aI324501522
aa(lp4620
Vuser
p4621
aVFences and windows
p4622
aa(lp4623
Vtimestamp
p4624
ag15
((I2009
I11
I7
I19
I16
I17
I5
I311
I-1
t(dtRp4625
aa(lp4626
Vcomment
p4627
aV/* Lasting effects */  Simplified section
p4628
aatRp4629
ag2
((lp4630
(lp4631
Vrevid
p4632
aI324501522
aa(lp4633
Vparentid
p4634
aI324496310
aa(lp4635
Vuser
p4636
aVFences and windows
p4637
aa(lp4638
Vtimestamp
p4639
ag15
((I2009
I11
I7
I19
I2
I40
I5
I311
I-1
t(dtRp4640
aa(lp4641
Vcomment
p4642
aV/* Breaking news */  Merged content from "Anticipation" into "Breaking news" without deleting the content
p4643
aatRp4644
ag2
((lp4645
(lp4646
Vrevid
p4647
aI324496310
aa(lp4648
Vparentid
p4649
aI324495943
aa(lp4650
Vminor
p4651
aV
aa(lp4652
Vuser
p4653
aVFences and windows
p4654
aa(lp4655
Vtimestamp
p4656
ag15
((I2009
I11
I7
I18
I25
I12
I5
I311
I-1
t(dtRp4657
aa(lp4658
Vcomment
p4659
aV/* Routine coverage */
p4660
aatRp4661
ag2
((lp4662
(lp4663
Vrevid
p4664
aI324495943
aa(lp4665
Vparentid
p4666
aI324495715
aa(lp4667
Vuser
p4668
aVFences and windows
p4669
aa(lp4670
Vtimestamp
p4671
ag15
((I2009
I11
I7
I18
I22
I50
I5
I311
I-1
t(dtRp4672
aa(lp4673
Vcomment
p4674
aV/* Routine coverage */  Removed unnecessary qualification
p4675
aatRp4676
ag2
((lp4677
(lp4678
Vrevid
p4679
aI324495715
aa(lp4680
Vparentid
p4681
aI324495056
aa(lp4682
Vuser
p4683
aVFences and windows
p4684
aa(lp4685
Vtimestamp
p4686
ag15
((I2009
I11
I7
I18
I21
I21
I5
I311
I-1
t(dtRp4687
aa(lp4688
Vcomment
p4689
aV/* Routine long-term coverage */  Removing section. It isn't clear enough what this adds or how to apply this section in practice, and it strays into the area of [[WP:N/CA]]
p4690
aatRp4691
ag2
((lp4692
(lp4693
Vrevid
p4694
aI324495056
aa(lp4695
Vparentid
p4696
aI324494069
aa(lp4697
Vuser
p4698
aVFences and windows
p4699
aa(lp4700
Vtimestamp
p4701
ag15
((I2009
I11
I7
I18
I16
I35
I5
I311
I-1
t(dtRp4702
aa(lp4703
Vcomment
p4704
aV/* Geographical scope */  Simplified geographical scope section
p4705
aatRp4706
ag2
((lp4707
(lp4708
Vrevid
p4709
aI324494069
aa(lp4710
Vparentid
p4711
aI324493978
aa(lp4712
Vminor
p4713
aV
aa(lp4714
Vuser
p4715
aVFences and windows
p4716
aa(lp4717
Vtimestamp
p4718
ag15
((I2009
I11
I7
I18
I9
I39
I5
I311
I-1
t(dtRp4719
aa(lp4720
Vcomment
p4721
aV/* Reliability and bias */
p4722
aatRp4723
ag2
((lp4724
(lp4725
Vrevid
p4726
aI324493978
aa(lp4727
Vparentid
p4728
aI324493293
aa(lp4729
Vuser
p4730
aVFences and windows
p4731
aa(lp4732
Vtimestamp
p4733
ag15
((I2009
I11
I7
I18
I9
I2
I5
I311
I-1
t(dtRp4734
aa(lp4735
Vcomment
p4736
aV/* Reliability and bias */  Added note about WP:NOTSCANDAL
p4737
aatRp4738
ag2
((lp4739
(lp4740
Vrevid
p4741
aI324493293
aa(lp4742
Vparentid
p4743
aI323807609
aa(lp4744
Vuser
p4745
aVFences and windows
p4746
aa(lp4747
Vtimestamp
p4748
ag15
((I2009
I11
I7
I18
I4
I23
I5
I311
I-1
t(dtRp4749
aa(lp4750
Vcomment
p4751
aV/* Cause and effect */  Title & shortcut edit
p4752
aatRp4753
ag2
((lp4754
(lp4755
Vrevid
p4756
aI323807609
aa(lp4757
Vparentid
p4758
aI323804865
aa(lp4759
Vuser
p4760
aVFences and windows
p4761
aa(lp4762
Vtimestamp
p4763
ag15
((I2009
I11
I4
I1
I8
I10
I2
I308
I-1
t(dtRp4764
aa(lp4765
Vcomment
p4766
aVSorted out redundancy of titles
p4767
aatRp4768
ag2
((lp4769
(lp4770
Vrevid
p4771
aI323804865
aa(lp4772
Vparentid
p4773
aI323727524
aa(lp4774
Vuser
p4775
aVFences and windows
p4776
aa(lp4777
Vtimestamp
p4778
ag15
((I2009
I11
I4
I0
I52
I5
I2
I308
I-1
t(dtRp4779
aa(lp4780
Vcomment
p4781
aVNo need to merge in [[WP:News articles]], that essay's creator objected.
p4782
aatRp4783
ag2
((lp4784
(lp4785
Vrevid
p4786
aI323727524
aa(lp4787
Vparentid
p4788
aI323725487
aa(lp4789
Vuser
p4790
aVSebwite
p4791
aa(lp4792
Vtimestamp
p4793
ag15
((I2009
I11
I3
I17
I45
I33
I1
I307
I-1
t(dtRp4794
aa(lp4795
Vcomment
p4796
aVremove {{construction}} tag; no longer needed here
p4797
aatRp4798
ag2
((lp4799
(lp4800
Vrevid
p4801
aI323725487
aa(lp4802
Vparentid
p4803
aI323720029
aa(lp4804
Vuser
p4805
aVSebwite
p4806
aa(lp4807
Vtimestamp
p4808
ag15
((I2009
I11
I3
I17
I35
I27
I1
I307
I-1
t(dtRp4809
aa(lp4810
Vcomment
p4811
aV/* Routine coverage */ routine long term
p4812
aatRp4813
ag2
((lp4814
(lp4815
Vrevid
p4816
aI323720029
aa(lp4817
Vparentid
p4818
aI323718558
aa(lp4819
Vuser
p4820
aVSebwite
p4821
aa(lp4822
Vtimestamp
p4823
ag15
((I2009
I11
I3
I17
I8
I6
I1
I307
I-1
t(dtRp4824
aa(lp4825
Vcomment
p4826
aV/* Anticipation */ example of what is not
p4827
aatRp4828
ag2
((lp4829
(lp4830
Vrevid
p4831
aI323718558
aa(lp4832
Vparentid
p4833
aI323714474
aa(lp4834
Vminor
p4835
aV
aa(lp4836
Vuser
p4837
aVSebwite
p4838
aa(lp4839
Vtimestamp
p4840
ag15
((I2009
I11
I3
I17
I0
I9
I1
I307
I-1
t(dtRp4841
aa(lp4842
Vcomment
p4843
aV/* Cause and effect */ reword
p4844
aatRp4845
ag2
((lp4846
(lp4847
Vrevid
p4848
aI323714474
aa(lp4849
Vparentid
p4850
aI323713353
aa(lp4851
Vuser
p4852
aVSebwite
p4853
aa(lp4854
Vtimestamp
p4855
ag15
((I2009
I11
I3
I16
I38
I36
I1
I307
I-1
t(dtRp4856
aa(lp4857
Vcomment
p4858
aV/* Diversity of sources */ mention [[WP:GNG]], [[WP:BOMBARD]]
p4859
aatRp4860
ag2
((lp4861
(lp4862
Vrevid
p4863
aI323713353
aa(lp4864
Vparentid
p4865
aI323712261
aa(lp4866
Vminor
p4867
aV
aa(lp4868
Vuser
p4869
aVSebwite
p4870
aa(lp4871
Vtimestamp
p4872
ag15
((I2009
I11
I3
I16
I32
I59
I1
I307
I-1
t(dtRp4873
aa(lp4874
Vcomment
p4875
aV/* Depth of coverage */ general guideline
p4876
aatRp4877
ag2
((lp4878
(lp4879
Vrevid
p4880
aI323712261
aa(lp4881
Vparentid
p4882
aI323711980
aa(lp4883
Vminor
p4884
aV
aa(lp4885
Vuser
p4886
aVSebwite
p4887
aa(lp4888
Vtimestamp
p4889
ag15
((I2009
I11
I3
I16
I26
I58
I1
I307
I-1
t(dtRp4890
aa(lp4891
Vcomment
p4892
aV/* Diversity of sources */ sc
p4893
aatRp4894
ag2
((lp4895
(lp4896
Vrevid
p4897
aI323711980
aa(lp4898
Vparentid
p4899
aI323711629
aa(lp4900
Vuser
p4901
aVSebwite
p4902
aa(lp4903
Vtimestamp
p4904
ag15
((I2009
I11
I3
I16
I25
I21
I1
I307
I-1
t(dtRp4905
aa(lp4906
Vcomment
p4907
aV/* Geographical scope */ sc
p4908
aatRp4909
ag2
((lp4910
(lp4911
Vrevid
p4912
aI323711629
aa(lp4913
Vparentid
p4914
aI323711420
aa(lp4915
Vminor
p4916
aV
aa(lp4917
Vuser
p4918
aVSebwite
p4919
aa(lp4920
Vtimestamp
p4921
ag15
((I2009
I11
I3
I16
I23
I27
I1
I307
I-1
t(dtRp4922
aa(lp4923
Vcomment
p4924
aV/* Breaking news */ sc
p4925
aatRp4926
ag2
((lp4927
(lp4928
Vrevid
p4929
aI323711420
aa(lp4930
Vparentid
p4931
aI323711189
aa(lp4932
Vuser
p4933
aVSebwite
p4934
aa(lp4935
Vtimestamp
p4936
ag15
((I2009
I11
I3
I16
I22
I14
I1
I307
I-1
t(dtRp4937
aa(lp4938
Vcomment
p4939
aV/* Routine coverage */ sc
p4940
aatRp4941
ag2
((lp4942
(lp4943
Vrevid
p4944
aI323711189
aa(lp4945
Vparentid
p4946
aI323706045
aa(lp4947
Vuser
p4948
aVSebwite
p4949
aa(lp4950
Vtimestamp
p4951
ag15
((I2009
I11
I3
I16
I20
I52
I1
I307
I-1
t(dtRp4952
aa(lp4953
Vcomment
p4954
aV/* Reliability and bias */ sc
p4955
aatRp4956
ag2
((lp4957
(lp4958
Vrevid
p4959
aI323706045
aa(lp4960
Vparentid
p4961
aI323588994
aa(lp4962
Vuser
p4963
aVSebwite
p4964
aa(lp4965
Vtimestamp
p4966
ag15
((I2009
I11
I3
I15
I51
I31
I1
I307
I-1
t(dtRp4967
aa(lp4968
Vcomment
p4969
aV/* Cause and effect */ anticipation
p4970
aatRp4971
ag2
((lp4972
(lp4973
Vrevid
p4974
aI323588994
aa(lp4975
Vparentid
p4976
aI323588768
aa(lp4977
Vminor
p4978
aV
aa(lp4979
Vuser
p4980
aVSebwite
p4981
aa(lp4982
Vtimestamp
p4983
ag15
((I2009
I11
I3
I0
I48
I49
I1
I307
I-1
t(dtRp4984
aa(lp4985
Vcomment
p4986
aV/* Anticipation */
p4987
aatRp4988
ag2
((lp4989
(lp4990
Vrevid
p4991
aI323588768
aa(lp4992
Vparentid
p4993
aI323588562
aa(lp4994
Vminor
p4995
aV
aa(lp4996
Vuser
p4997
aVSebwite
p4998
aa(lp4999
Vtimestamp
p5000
ag15
((I2009
I11
I3
I0
I47
I27
I1
I307
I-1
t(dtRp5001
aa(lp5002
Vcomment
p5003
aV/* Cause and effect */
p5004
aatRp5005
ag2
((lp5006
(lp5007
Vrevid
p5008
aI323588562
aa(lp5009
Vparentid
p5010
aI323586887
aa(lp5011
Vuser
p5012
aVSebwite
p5013
aa(lp5014
Vtimestamp
p5015
ag15
((I2009
I11
I3
I0
I46
I16
I1
I307
I-1
t(dtRp5016
aa(lp5017
Vcomment
p5018
aV/* Impact */ rename to cause and effect (so people understand meaning), provide more info
p5019
aatRp5020
ag2
((lp5021
(lp5022
Vrevid
p5023
aI323586887
aa(lp5024
Vparentid
p5025
aI323584341
aa(lp5026
Vuser
p5027
aVSebwite
p5028
aa(lp5029
Vtimestamp
p5030
ag15
((I2009
I11
I3
I0
I37
I38
I1
I307
I-1
t(dtRp5031
aa(lp5032
Vcomment
p5033
aV/* Criteria */ add info to geography
p5034
aatRp5035
ag2
((lp5036
(lp5037
Vrevid
p5038
aI323584341
aa(lp5039
Vparentid
p5040
aI323544444
aa(lp5041
Vuser
p5042
aVSebwite
p5043
aa(lp5044
Vtimestamp
p5045
ag15
((I2009
I11
I3
I0
I24
I33
I1
I307
I-1
t(dtRp5046
aa(lp5047
Vcomment
p5048
aV/* Breaking news */ re-add; was removed the other day; please discuss before removing
p5049
aatRp5050
ag2
((lp5051
(lp5052
Vrevid
p5053
aI323544444
aa(lp5054
Vparentid
p5055
aI323391467
aa(lp5056
Vuser
p5057
aVFences and windows
p5058
aa(lp5059
Vtimestamp
p5060
ag15
((I2009
I11
I2
I21
I13
I21
I0
I306
I-1
t(dtRp5061
aa(lp5062
Vcomment
p5063
aV/* Breaking news */
p5064
aatRp5065
ag2
((lp5066
(lp5067
Vrevid
p5068
aI323391467
aa(lp5069
Vparentid
p5070
aI323390215
aa(lp5071
Vuser
p5072
aVFences and windows
p5073
aa(lp5074
Vtimestamp
p5075
ag15
((I2009
I11
I2
I1
I42
I40
I0
I306
I-1
t(dtRp5076
aa(lp5077
Vcomment
p5078
aV/* Criteria */  More refining of criteria
p5079
aatRp5080
ag2
((lp5081
(lp5082
Vrevid
p5083
aI323390215
aa(lp5084
Vparentid
p5085
aI323390071
aa(lp5086
Vuser
p5087
aVFences and windows
p5088
aa(lp5089
Vtimestamp
p5090
ag15
((I2009
I11
I2
I1
I34
I25
I0
I306
I-1
t(dtRp5091
aa(lp5092
Vcomment
p5093
aV/* Depth */ Moved wording to better section
p5094
aatRp5095
ag2
((lp5096
(lp5097
Vrevid
p5098
aI323390071
aa(lp5099
Vparentid
p5100
aI323389538
aa(lp5101
Vuser
p5102
aVFences and windows
p5103
aa(lp5104
Vtimestamp
p5105
ag15
((I2009
I11
I2
I1
I33
I23
I0
I306
I-1
t(dtRp5106
aa(lp5107
Vcomment
p5108
aV/* Breadth and scope */  Split scope and breadth
p5109
aatRp5110
ag2
((lp5111
(lp5112
Vrevid
p5113
aI323389538
aa(lp5114
Vparentid
p5115
aI323214689
aa(lp5116
Vuser
p5117
aVFences and windows
p5118
aa(lp5119
Vtimestamp
p5120
ag15
((I2009
I11
I2
I1
I30
I7
I0
I306
I-1
t(dtRp5121
aa(lp5122
Vcomment
p5123
aV/* Persistence */  Split out 'impact' to a new subsection
p5124
aatRp5125
ag2
((lp5126
(lp5127
Vrevid
p5128
aI323214689
aa(lp5129
Vparentid
p5130
aI323207234
aa(lp5131
Vuser
p5132
aVFences and windows
p5133
aa(lp5134
Vtimestamp
p5135
ag15
((I2009
I11
I1
I3
I0
I44
I6
I305
I-1
t(dtRp5136
aa(lp5137
Vcomment
p5138
aVReverted to revision 322998675 by [[Special:Contributions/Fences and windows|Fences and windows]]; I'm sorry Sebwite, but these edits don't match the tone, mischaracterise WP:ONEEVENT and are to some extent redundant to existing content. ([[WP:TW|TW]
p5139
aatRp5140
ag2
((lp5141
(lp5142
Vrevid
p5143
aI323207234
aa(lp5144
Vparentid
p5145
aI323205230
aa(lp5146
Vuser
p5147
aVSebwite
p5148
aa(lp5149
Vtimestamp
p5150
ag15
((I2009
I11
I1
I1
I57
I41
I6
I305
I-1
t(dtRp5151
aa(lp5152
Vcomment
p5153
aV/* Breaking news */ anticipation
p5154
aatRp5155
ag2
((lp5156
(lp5157
Vrevid
p5158
aI323205230
aa(lp5159
Vparentid
p5160
aI322998675
aa(lp5161
Vuser
p5162
aVSebwite
p5163
aa(lp5164
Vtimestamp
p5165
ag15
((I2009
I11
I1
I1
I42
I32
I6
I305
I-1
t(dtRp5166
aa(lp5167
Vcomment
p5168
aVadd some
p5169
aatRp5170
ag2
((lp5171
(lp5172
Vrevid
p5173
aI322998675
aa(lp5174
Vparentid
p5175
aI322998341
aa(lp5176
Vminor
p5177
aV
aa(lp5178
Vuser
p5179
aVFences and windows
p5180
aa(lp5181
Vtimestamp
p5182
ag15
((I2009
I10
I30
I22
I6
I47
I4
I303
I-1
t(dtRp5183
aa(lp5184
Vcomment
p5185
aV/* Alternatives to deletion */  Main link
p5186
aatRp5187
ag2
((lp5188
(lp5189
Vrevid
p5190
aI322998341
aa(lp5191
Vparentid
p5192
aI322998311
aa(lp5193
Vminor
p5194
aV
aa(lp5195
Vuser
p5196
aVFences and windows
p5197
aa(lp5198
Vtimestamp
p5199
ag15
((I2009
I10
I30
I22
I4
I7
I4
I303
I-1
t(dtRp5200
aa(lp5201
Vcomment
p5202
aV/* Participants */
p5203
aatRp5204
ag2
((lp5205
(lp5206
Vrevid
p5207
aI322998311
aa(lp5208
Vparentid
p5209
aI322998234
aa(lp5210
Vminor
p5211
aV
aa(lp5212
Vuser
p5213
aVFences and windows
p5214
aa(lp5215
Vtimestamp
p5216
ag15
((I2009
I10
I30
I22
I3
I50
I4
I303
I-1
t(dtRp5217
aa(lp5218
Vcomment
p5219
aV/* Participants */
p5220
aatRp5221
ag2
((lp5222
(lp5223
Vrevid
p5224
aI322998234
aa(lp5225
Vparentid
p5226
aI322997116
aa(lp5227
Vuser
p5228
aVFences and windows
p5229
aa(lp5230
Vtimestamp
p5231
ag15
((I2009
I10
I30
I22
I3
I24
I4
I303
I-1
t(dtRp5232
aa(lp5233
Vcomment
p5234
aV/* Breaking news */  See also links
p5235
aatRp5236
ag2
((lp5237
(lp5238
Vrevid
p5239
aI322997116
aa(lp5240
Vparentid
p5241
aI322995507
aa(lp5242
Vuser
p5243
aVFences and windows
p5244
aa(lp5245
Vtimestamp
p5246
ag15
((I2009
I10
I30
I21
I56
I12
I4
I303
I-1
t(dtRp5247
aa(lp5248
Vcomment
p5249
aV/* See also */  Added [[WP:WIDESPREAD]] to See also
p5250
aatRp5251
ag2
((lp5252
(lp5253
Vrevid
p5254
aI322995507
aa(lp5255
Vparentid
p5256
aI322994865
aa(lp5257
Vuser
p5258
aVFences and windows
p5259
aa(lp5260
Vtimestamp
p5261
ag15
((I2009
I10
I30
I21
I45
I39
I4
I303
I-1
t(dtRp5262
aa(lp5263
Vcomment
p5264
aV/* Breadth and scope */  Re to local interests notability proposal
p5265
aatRp5266
ag2
((lp5267
(lp5268
Vrevid
p5269
aI322994865
aa(lp5270
Vparentid
p5271
aI322666609
aa(lp5272
Vuser
p5273
aVFences and windows
p5274
aa(lp5275
Vtimestamp
p5276
ag15
((I2009
I10
I30
I21
I41
I17
I4
I303
I-1
t(dtRp5277
aa(lp5278
Vcomment
p5279
aV/* Routine coverage */  Added 'run-of-the-mill'
p5280
aatRp5281
ag2
((lp5282
(lp5283
Vrevid
p5284
aI322666609
aa(lp5285
Vparentid
p5286
aI322657834
aa(lp5287
Vuser
p5288
aVRusty Cashman
p5289
aa(lp5290
Vtimestamp
p5291
ag15
((I2009
I10
I29
I2
I56
I5
I3
I302
I-1
t(dtRp5292
aa(lp5293
Vcomment
p5294
aV/* Depth */  many is better than most here - Some newspaper articles and editorials can be in depth
p5295
aatRp5296
ag2
((lp5297
(lp5298
Vrevid
p5299
aI322657834
aa(lp5300
Vparentid
p5301
aI322657562
aa(lp5302
Vuser
p5303
aVFences and windows
p5304
aa(lp5305
Vtimestamp
p5306
ag15
((I2009
I10
I29
I1
I50
I41
I3
I302
I-1
t(dtRp5307
aa(lp5308
Vcomment
p5309
aV/* Breadth and scope */  Minor rewording
p5310
aatRp5311
ag2
((lp5312
(lp5313
Vrevid
p5314
aI322657562
aa(lp5315
Vparentid
p5316
aI322642915
aa(lp5317
Vminor
p5318
aV
aa(lp5319
Vuser
p5320
aVFences and windows
p5321
aa(lp5322
Vtimestamp
p5323
ag15
((I2009
I10
I29
I1
I48
I40
I3
I302
I-1
t(dtRp5324
aa(lp5325
Vcomment
p5326
aV/* Persistence */  Reordered wording
p5327
aatRp5328
ag2
((lp5329
(lp5330
Vrevid
p5331
aI322642915
aa(lp5332
Vparentid
p5333
aI322642368
aa(lp5334
Vminor
p5335
aV
aa(lp5336
Vuser
p5337
aVFences and windows
p5338
aa(lp5339
Vtimestamp
p5340
ag15
((I2009
I10
I29
I0
I21
I56
I3
I302
I-1
t(dtRp5341
aa(lp5342
Vcomment
p5343
aV/* Content */  types -> kind
p5344
aatRp5345
ag2
((lp5346
(lp5347
Vrevid
p5348
aI322642368
aa(lp5349
Vparentid
p5350
aI322640947
aa(lp5351
Vuser
p5352
aVFences and windows
p5353
aa(lp5354
Vtimestamp
p5355
ag15
((I2009
I10
I29
I0
I18
I49
I3
I302
I-1
t(dtRp5356
aa(lp5357
Vcomment
p5358
aV/* See also */  Added In the news box
p5359
aatRp5360
ag2
((lp5361
(lp5362
Vrevid
p5363
aI322640947
aa(lp5364
Vparentid
p5365
aI322640107
aa(lp5366
Vuser
p5367
aVFences and windows
p5368
aa(lp5369
Vtimestamp
p5370
ag15
((I2009
I10
I29
I0
I10
I31
I3
I302
I-1
t(dtRp5371
aa(lp5372
Vcomment
p5373
aV/* See also */  Added several links
p5374
aatRp5375
ag2
((lp5376
(lp5377
Vrevid
p5378
aI322640107
aa(lp5379
Vparentid
p5380
aI322452865
aa(lp5381
Vuser
p5382
aVFences and windows
p5383
aa(lp5384
Vtimestamp
p5385
ag15
((I2009
I10
I29
I0
I5
I7
I3
I302
I-1
t(dtRp5386
aa(lp5387
Vcomment
p5388
aV/* Criteria */  Added bit about current use of guidelines
p5389
aatRp5390
ag2
((lp5391
(lp5392
Vrevid
p5393
aI322452865
aa(lp5394
Vparentid
p5395
aI322446610
aa(lp5396
Vuser
p5397
aVMickMacNee
p5398
aa(lp5399
Vtimestamp
p5400
ag15
((I2009
I10
I28
I1
I15
I43
I2
I301
I-1
t(dtRp5401
aa(lp5402
Vcomment
p5403
aV/* See also */  + *[[Wikipedia:Arguments to avoid in deletion discussions#It's in the news]]
p5404
aatRp5405
ag2
((lp5406
(lp5407
Vrevid
p5408
aI322446610
aa(lp5409
Vparentid
p5410
aI321844396
aa(lp5411
Vuser
p5412
aVFences and windows
p5413
aa(lp5414
Vtimestamp
p5415
ag15
((I2009
I10
I28
I0
I36
I50
I2
I301
I-1
t(dtRp5416
aa(lp5417
Vcomment
p5418
aV/* Routine coverage */  "Planned coverage" added
p5419
aatRp5420
ag2
((lp5421
(lp5422
Vrevid
p5423
aI321844396
aa(lp5424
Vparentid
p5425
aI321843886
aa(lp5426
Vuser
p5427
aVFences and windows
p5428
aa(lp5429
Vtimestamp
p5430
ag15
((I2009
I10
I24
I23
I25
I11
I5
I297
I-1
t(dtRp5431
aa(lp5432
Vcomment
p5433
aVChanged the nutshell
p5434
aatRp5435
ag2
((lp5436
(lp5437
Vrevid
p5438
aI321843886
aa(lp5439
Vparentid
p5440
aI321842828
aa(lp5441
Vuser
p5442
aVFences and windows
p5443
aa(lp5444
Vtimestamp
p5445
ag15
((I2009
I10
I24
I23
I21
I13
I5
I297
I-1
t(dtRp5446
aa(lp5447
Vcomment
p5448
aV/* Criteria */
p5449
aatRp5450
ag2
((lp5451
(lp5452
Vrevid
p5453
aI321842828
aa(lp5454
Vparentid
p5455
aI321842597
aa(lp5456
Vuser
p5457
aVFences and windows
p5458
aa(lp5459
Vtimestamp
p5460
ag15
((I2009
I10
I24
I23
I14
I6
I5
I297
I-1
t(dtRp5461
aa(lp5462
Vcomment
p5463
aV/* Criminal acts */
p5464
aatRp5465
ag2
((lp5466
(lp5467
Vrevid
p5468
aI321842597
aa(lp5469
Vparentid
p5470
aI321842526
aa(lp5471
Vuser
p5472
aVFences and windows
p5473
aa(lp5474
Vtimestamp
p5475
ag15
((I2009
I10
I24
I23
I12
I45
I5
I297
I-1
t(dtRp5476
aa(lp5477
Vcomment
p5478
aV/* People involved in events */
p5479
aatRp5480
ag2
((lp5481
(lp5482
Vrevid
p5483
aI321842526
aa(lp5484
Vparentid
p5485
aI321841747
aa(lp5486
Vuser
p5487
aVFences and windows
p5488
aa(lp5489
Vtimestamp
p5490
ag15
((I2009
I10
I24
I23
I12
I17
I5
I297
I-1
t(dtRp5491
aa(lp5492
Vcomment
p5493
aV/* Alternatives to deletion */  Wording from [[Wikipedia:Notability_(criminal_acts)#Inclusion_of_biographical_information]]
p5494
aatRp5495
ag2
((lp5496
(lp5497
Vrevid
p5498
aI321841747
aa(lp5499
Vparentid
p5500
aI321841673
aa(lp5501
Vminor
p5502
aV
aa(lp5503
Vuser
p5504
aVFences and windows
p5505
aa(lp5506
Vtimestamp
p5507
ag15
((I2009
I10
I24
I23
I7
I30
I5
I297
I-1
t(dtRp5508
aa(lp5509
Vcomment
p5510
aV/* Breaking news */
p5511
aatRp5512
ag2
((lp5513
(lp5514
Vrevid
p5515
aI321841673
aa(lp5516
Vparentid
p5517
aI321841118
aa(lp5518
Vuser
p5519
aVFences and windows
p5520
aa(lp5521
Vtimestamp
p5522
ag15
((I2009
I10
I24
I23
I7
I4
I5
I297
I-1
t(dtRp5523
aa(lp5524
Vcomment
p5525
aV/* Breaking news */  Wording from [[Wikipedia:Notability_(criminal_acts)#Templates]]
p5526
aatRp5527
ag2
((lp5528
(lp5529
Vrevid
p5530
aI321841118
aa(lp5531
Vparentid
p5532
aI321840132
aa(lp5533
Vuser
p5534
aVFences and windows
p5535
aa(lp5536
Vtimestamp
p5537
ag15
((I2009
I10
I24
I23
I3
I35
I5
I297
I-1
t(dtRp5538
aa(lp5539
Vcomment
p5540
aV/* Criteria */
p5541
aatRp5542
ag2
((lp5543
(lp5544
Vrevid
p5545
aI321840132
aa(lp5546
Vparentid
p5547
aI321837784
aa(lp5548
Vuser
p5549
aVFences and windows
p5550
aa(lp5551
Vtimestamp
p5552
ag15
((I2009
I10
I24
I22
I56
I49
I5
I297
I-1
t(dtRp5553
aa(lp5554
Vcomment
p5555
aV/* Scope */  Borrowing wording from [[Wikipedia:Notability_(criminal_acts)#Multiple.2C_independent_sources]]
p5556
aatRp5557
ag2
((lp5558
(lp5559
Vrevid
p5560
aI321837784
aa(lp5561
Vparentid
p5562
aI321675427
aa(lp5563
Vuser
p5564
aVFences and windows
p5565
aa(lp5566
Vtimestamp
p5567
ag15
((I2009
I10
I24
I22
I40
I57
I5
I297
I-1
t(dtRp5568
aa(lp5569
Vcomment
p5570
aVAdding some draft ideas on "routine coverage"
p5571
aatRp5572
ag2
((lp5573
(lp5574
Vrevid
p5575
aI321675427
aa(lp5576
Vparentid
p5577
aI321673126
aa(lp5578
Vuser
p5579
aVFences and windows
p5580
aa(lp5581
Vtimestamp
p5582
ag15
((I2009
I10
I24
I0
I50
I21
I5
I297
I-1
t(dtRp5583
aa(lp5584
Vcomment
p5585
aV/* Content */
p5586
aatRp5587
ag2
((lp5588
(lp5589
Vrevid
p5590
aI321673126
aa(lp5591
Vparentid
p5592
aI321670854
aa(lp5593
Vuser
p5594
aVFences and windows
p5595
aa(lp5596
Vtimestamp
p5597
ag15
((I2009
I10
I24
I0
I30
I52
I5
I297
I-1
t(dtRp5598
aa(lp5599
Vcomment
p5600
aV
aatRp5601
ag2
((lp5602
(lp5603
Vrevid
p5604
aI321670854
aa(lp5605
Vparentid
p5606
aI321670343
aa(lp5607
Vuser
p5608
aVFences and windows
p5609
aa(lp5610
Vtimestamp
p5611
ag15
((I2009
I10
I24
I0
I13
I9
I5
I297
I-1
t(dtRp5612
aa(lp5613
Vcomment
p5614
aV/* Breaking news */
p5615
aatRp5616
ag2
((lp5617
(lp5618
Vrevid
p5619
aI321670343
aa(lp5620
Vparentid
p5621
aI321670074
aa(lp5622
Vuser
p5623
aVFences and windows
p5624
aa(lp5625
Vtimestamp
p5626
ag15
((I2009
I10
I24
I0
I9
I7
I5
I297
I-1
t(dtRp5627
aa(lp5628
Vcomment
p5629
aV
aatRp5630
ag2
((lp5631
(lp5632
Vrevid
p5633
aI321670074
aa(lp5634
Vparentid
p5635
aI321669860
aa(lp5636
Vuser
p5637
aVFences and windows
p5638
aa(lp5639
Vtimestamp
p5640
ag15
((I2009
I10
I24
I0
I7
I0
I5
I297
I-1
t(dtRp5641
aa(lp5642
Vcomment
p5643
aV/* Criteria */
p5644
aatRp5645
ag2
((lp5646
(lp5647
Vrevid
p5648
aI321669860
aa(lp5649
Vparentid
p5650
aI321668647
aa(lp5651
Vuser
p5652
aVFences and windows
p5653
aa(lp5654
Vtimestamp
p5655
ag15
((I2009
I10
I24
I0
I5
I38
I5
I297
I-1
t(dtRp5656
aa(lp5657
Vcomment
p5658
aV/* Sensationalism */
p5659
aatRp5660
ag2
((lp5661
(lp5662
Vrevid
p5663
aI321668647
aa(lp5664
Vparentid
p5665
aI321668202
aa(lp5666
Vuser
p5667
aVFences and windows
p5668
aa(lp5669
Vtimestamp
p5670
ag15
((I2009
I10
I23
I23
I56
I9
I4
I296
I-1
t(dtRp5671
aa(lp5672
Vcomment
p5673
aV/* Criteria */
p5674
aatRp5675
ag2
((lp5676
(lp5677
Vrevid
p5678
aI321668202
aa(lp5679
Vparentid
p5680
aI321668106
aa(lp5681
Vuser
p5682
aVFences and windows
p5683
aa(lp5684
Vtimestamp
p5685
ag15
((I2009
I10
I23
I23
I52
I29
I4
I296
I-1
t(dtRp5686
aa(lp5687
Vcomment
p5688
aV/* Criteria */
p5689
aatRp5690
ag2
((lp5691
(lp5692
Vrevid
p5693
aI321668106
aa(lp5694
Vparentid
p5695
aI321629162
aa(lp5696
Vuser
p5697
aVFences and windows
p5698
aa(lp5699
Vtimestamp
p5700
ag15
((I2009
I10
I23
I23
I51
I36
I4
I296
I-1
t(dtRp5701
aa(lp5702
Vcomment
p5703
aV/* Persistence */
p5704
aatRp5705
ag2
((lp5706
(lp5707
Vrevid
p5708
aI321629162
aa(lp5709
Vparentid
p5710
aI321480567
aa(lp5711
Vuser
p5712
aVLocation
p5713
aa(lp5714
Vtimestamp
p5715
ag15
((I2009
I10
I23
I19
I48
I34
I4
I296
I-1
t(dtRp5716
aa(lp5717
Vcomment
p5718
aV/* Criteria */  trying to place these in a hierarchy roughly suggested on the talk page
p5719
aatRp5720
ag2
((lp5721
(lp5722
Vrevid
p5723
aI321480567
aa(lp5724
Vparentid
p5725
aI321476378
aa(lp5726
Vuser
p5727
aVFences and windows
p5728
aa(lp5729
Vtimestamp
p5730
ag15
((I2009
I10
I22
I23
I41
I54
I3
I295
I-1
t(dtRp5731
aa(lp5732
Vcomment
p5733
aV/* Depth */
p5734
aatRp5735
ag2
((lp5736
(lp5737
Vrevid
p5738
aI321476378
aa(lp5739
Vparentid
p5740
aI321475852
aa(lp5741
Vuser
p5742
aVRusty Cashman
p5743
aa(lp5744
Vtimestamp
p5745
ag15
((I2009
I10
I22
I23
I13
I1
I3
I295
I-1
t(dtRp5746
aa(lp5747
Vcomment
p5748
aV/* Persistence */  get rid of confusing red link
p5749
aatRp5750
ag2
((lp5751
(lp5752
Vrevid
p5753
aI321475852
aa(lp5754
Vparentid
p5755
aI321475613
aa(lp5756
Vuser
p5757
aVRusty Cashman
p5758
aa(lp5759
Vtimestamp
p5760
ag15
((I2009
I10
I22
I23
I9
I45
I3
I295
I-1
t(dtRp5761
aa(lp5762
Vcomment
p5763
aV/* Depth */  Delete guidance text
p5764
aatRp5765
ag2
((lp5766
(lp5767
Vrevid
p5768
aI321475613
aa(lp5769
Vparentid
p5770
aI321475478
aa(lp5771
Vminor
p5772
aV
aa(lp5773
Vuser
p5774
aVRusty Cashman
p5775
aa(lp5776
Vtimestamp
p5777
ag15
((I2009
I10
I22
I23
I8
I25
I3
I295
I-1
t(dtRp5778
aa(lp5779
Vcomment
p5780
aV/* Depth */  fix red link
p5781
aatRp5782
ag2
((lp5783
(lp5784
Vrevid
p5785
aI321475478
aa(lp5786
Vparentid
p5787
aI321472930
aa(lp5788
Vuser
p5789
aVRusty Cashman
p5790
aa(lp5791
Vtimestamp
p5792
ag15
((I2009
I10
I22
I23
I7
I42
I3
I295
I-1
t(dtRp5793
aa(lp5794
Vcomment
p5795
aV/* Depth */ Delete  guidance text and provide examples of major news magazines
p5796
aatRp5797
ag2
((lp5798
(lp5799
Vrevid
p5800
aI321472930
aa(lp5801
Vparentid
p5802
aI321472503
aa(lp5803
Vminor
p5804
aV
aa(lp5805
Vuser
p5806
aVRusty Cashman
p5807
aa(lp5808
Vtimestamp
p5809
ag15
((I2009
I10
I22
I22
I51
I19
I3
I295
I-1
t(dtRp5810
aa(lp5811
Vcomment
p5812
aV/* Depth */  wording
p5813
aatRp5814
ag2
((lp5815
(lp5816
Vrevid
p5817
aI321472503
aa(lp5818
Vparentid
p5819
aI321472064
aa(lp5820
Vuser
p5821
aVRusty Cashman
p5822
aa(lp5823
Vtimestamp
p5824
ag15
((I2009
I10
I22
I22
I48
I20
I3
I295
I-1
t(dtRp5825
aa(lp5826
Vcomment
p5827
aV/* Depth */  Improve wording
p5828
aatRp5829
ag2
((lp5830
(lp5831
Vrevid
p5832
aI321472064
aa(lp5833
Vparentid
p5834
aI321471494
aa(lp5835
Vuser
p5836
aVRusty Cashman
p5837
aa(lp5838
Vtimestamp
p5839
ag15
((I2009
I10
I22
I22
I45
I30
I3
I295
I-1
t(dtRp5840
aa(lp5841
Vcomment
p5842
aV/* Persistence */  strengthen wording
p5843
aatRp5844
ag2
((lp5845
(lp5846
Vrevid
p5847
aI321471494
aa(lp5848
Vparentid
p5849
aI321448637
aa(lp5850
Vuser
p5851
aVRusty Cashman
p5852
aa(lp5853
Vtimestamp
p5854
ag15
((I2009
I10
I22
I22
I41
I45
I3
I295
I-1
t(dtRp5855
aa(lp5856
Vcomment
p5857
aV/* Depth */ quantity is not really the issue; quality and amount of analysis/context arre
p5858
aatRp5859
ag2
((lp5860
(lp5861
Vrevid
p5862
aI321448637
aa(lp5863
Vparentid
p5864
aI321447880
aa(lp5865
Vuser
p5866
aVLocation
p5867
aa(lp5868
Vtimestamp
p5869
ag15
((I2009
I10
I22
I20
I35
I53
I3
I295
I-1
t(dtRp5870
aa(lp5871
Vcomment
p5872
aVhope this isn't too bold
p5873
aatRp5874
ag2
((lp5875
(lp5876
Vrevid
p5877
aI321447880
aa(lp5878
Vparentid
p5879
aI321445199
aa(lp5880
Vuser
p5881
aVLocation
p5882
aa(lp5883
Vtimestamp
p5884
ag15
((I2009
I10
I22
I20
I32
I9
I3
I295
I-1
t(dtRp5885
aa(lp5886
Vcomment
p5887
aV
aatRp5888
ag2
((lp5889
(lp5890
Vrevid
p5891
aI321445199
aa(lp5892
Vparentid
p5893
aI321443303
aa(lp5894
Vuser
p5895
aVLocation
p5896
aa(lp5897
Vtimestamp
p5898
ag15
((I2009
I10
I22
I20
I18
I35
I3
I295
I-1
t(dtRp5899
aa(lp5900
Vcomment
p5901
aV/* Routine news coverage */  just a start
p5902
aatRp5903
ag2
((lp5904
(lp5905
Vrevid
p5906
aI321443303
aa(lp5907
Vparentid
p5908
aI321403098
aa(lp5909
Vuser
p5910
aVLocation
p5911
aa(lp5912
Vtimestamp
p5913
ag15
((I2009
I10
I22
I20
I8
I56
I3
I295
I-1
t(dtRp5914
aa(lp5915
Vcomment
p5916
aV/* Scope of coverage */  in progress
p5917
aatRp5918
ag2
((lp5919
(lp5920
Vrevid
p5921
aI321403098
aa(lp5922
Vparentid
p5923
aI321323504
aa(lp5924
Vuser
p5925
aVLocation
p5926
aa(lp5927
Vtimestamp
p5928
ag15
((I2009
I10
I22
I16
I18
I43
I3
I295
I-1
t(dtRp5929
aa(lp5930
Vcomment
p5931
aVrestored merge header per talk page
p5932
aatRp5933
ag2
((lp5934
(lp5935
Vrevid
p5936
aI321323504
aa(lp5937
Vparentid
p5938
aI321323131
aa(lp5939
Vuser
p5940
aVLocation
p5941
aa(lp5942
Vtimestamp
p5943
ag15
((I2009
I10
I22
I4
I0
I59
I3
I295
I-1
t(dtRp5944
aa(lp5945
Vcomment
p5946
aV/* Scope of coverage */
p5947
aatRp5948
ag2
((lp5949
(lp5950
Vrevid
p5951
aI321323131
aa(lp5952
Vparentid
p5953
aI321320901
aa(lp5954
Vuser
p5955
aVLocation
p5956
aa(lp5957
Vtimestamp
p5958
ag15
((I2009
I10
I22
I3
I57
I21
I3
I295
I-1
t(dtRp5959
aa(lp5960
Vcomment
p5961
aVis this ok?
p5962
aatRp5963
ag2
((lp5964
(lp5965
Vrevid
p5966
aI321320901
aa(lp5967
Vparentid
p5968
aI321314485
aa(lp5969
Vuser
p5970
aVFences and windows
p5971
aa(lp5972
Vtimestamp
p5973
ag15
((I2009
I10
I22
I3
I36
I53
I3
I295
I-1
t(dtRp5974
aa(lp5975
Vcomment
p5976
aV/* Criminal acts */ Removed merge tag
p5977
aatRp5978
ag2
((lp5979
(lp5980
Vrevid
p5981
aI321314485
aa(lp5982
Vparentid
p5983
aI321311880
aa(lp5984
Vuser
p5985
aVLocation
p5986
aa(lp5987
Vtimestamp
p5988
ag15
((I2009
I10
I22
I2
I41
I44
I3
I295
I-1
t(dtRp5989
aa(lp5990
Vcomment
p5991
aVpointing merge tag to discussion
p5992
aatRp5993
ag2
((lp5994
(lp5995
Vrevid
p5996
aI321311880
aa(lp5997
Vparentid
p5998
aI321311515
aa(lp5999
Vminor
p6000
aV
aa(lp6001
Vuser
p6002
aVLocation
p6003
aa(lp6004
Vtimestamp
p6005
ag15
((I2009
I10
I22
I2
I18
I47
I3
I295
I-1
t(dtRp6006
aa(lp6007
Vcomment
p6008
aV/* Criminal acts */
p6009
aatRp6010
ag2
((lp6011
(lp6012
Vrevid
p6013
aI321311515
aa(lp6014
Vparentid
p6015
aI321309779
aa(lp6016
Vminor
p6017
aV
aa(lp6018
Vuser
p6019
aVFences and windows
p6020
aa(lp6021
Vtimestamp
p6022
ag15
((I2009
I10
I22
I2
I15
I43
I3
I295
I-1
t(dtRp6023
aa(lp6024
Vcomment
p6025
aV
aatRp6026
ag2
((lp6027
(lp6028
Vrevid
p6029
aI321309779
aa(lp6030
Vparentid
p6031
aI321307978
aa(lp6032
Vuser
p6033
aVLocation
p6034
aa(lp6035
Vtimestamp
p6036
ag15
((I2009
I10
I22
I2
I1
I42
I3
I295
I-1
t(dtRp6037
aa(lp6038
Vcomment
p6039
aVrmvd merge tag
p6040
aatRp6041
ag2
((lp6042
(lp6043
Vrevid
p6044
aI321307978
aa(lp6045
Vparentid
p6046
aI321307713
aa(lp6047
Vuser
p6048
aVFences and windows
p6049
aa(lp6050
Vtimestamp
p6051
ag15
((I2009
I10
I22
I1
I47
I0
I3
I295
I-1
t(dtRp6052
aa(lp6053
Vcomment
p6054
aV/* Breaking news */
p6055
aatRp6056
ag2
((lp6057
(lp6058
Vrevid
p6059
aI321307713
aa(lp6060
Vparentid
p6061
aI321305273
aa(lp6062
Vuser
p6063
aVFences and windows
p6064
aa(lp6065
Vtimestamp
p6066
ag15
((I2009
I10
I22
I1
I44
I44
I3
I295
I-1
t(dtRp6067
aa(lp6068
Vcomment
p6069
aV/* Breaking news */
p6070
aatRp6071
ag2
((lp6072
(lp6073
Vrevid
p6074
aI321305273
aa(lp6075
Vparentid
p6076
aI321305155
aa(lp6077
Vuser
p6078
aVThe Wordsmith
p6079
aa(lp6080
Vtimestamp
p6081
ag15
((I2009
I10
I22
I1
I26
I32
I3
I295
I-1
t(dtRp6082
aa(lp6083
Vcomment
p6084
aV/* See also */ rm link that was redirected
p6085
aatRp6086
ag2
((lp6087
(lp6088
Vrevid
p6089
aI321305155
aa(lp6090
Vparentid
p6091
aI321304365
aa(lp6092
Vuser
p6093
aVFences and windows
p6094
aa(lp6095
Vtimestamp
p6096
ag15
((I2009
I10
I22
I1
I25
I46
I3
I295
I-1
t(dtRp6097
aa(lp6098
Vcomment
p6099
aV/* Breaking news */
p6100
aatRp6101
ag2
((lp6102
(lp6103
Vrevid
p6104
aI321304365
aa(lp6105
Vparentid
p6106
aI321302389
aa(lp6107
Vuser
p6108
aVFences and windows
p6109
aa(lp6110
Vtimestamp
p6111
ag15
((I2009
I10
I22
I1
I20
I0
I3
I295
I-1
t(dtRp6112
aa(lp6113
Vcomment
p6114
aV/* Sensationalism */
p6115
aatRp6116
ag2
((lp6117
(lp6118
Vrevid
p6119
aI321302389
aa(lp6120
Vparentid
p6121
aI321301845
aa(lp6122
Vuser
p6123
aVThe Wordsmith
p6124
aa(lp6125
Vtimestamp
p6126
ag15
((I2009
I10
I22
I1
I5
I22
I3
I295
I-1
t(dtRp6127
aa(lp6128
Vcomment
p6129
aVmerging content
p6130
aatRp6131
ag2
((lp6132
(lp6133
Vrevid
p6134
aI321301845
aa(lp6135
Vparentid
p6136
aI321301305
aa(lp6137
Vuser
p6138
aVFences and windows
p6139
aa(lp6140
Vtimestamp
p6141
ag15
((I2009
I10
I22
I1
I1
I5
I3
I295
I-1
t(dtRp6142
aa(lp6143
Vcomment
p6144
aV/* Systemic bias */
p6145
aatRp6146
ag2
((lp6147
(lp6148
Vrevid
p6149
aI321301305
aa(lp6150
Vparentid
p6151
aI321298516
aa(lp6152
Vuser
p6153
aVFences and windows
p6154
aa(lp6155
Vtimestamp
p6156
ag15
((I2009
I10
I22
I0
I57
I22
I3
I295
I-1
t(dtRp6157
aa(lp6158
Vcomment
p6159
aV/* Passing vs. lasting significance */
p6160
aatRp6161
ag2
((lp6162
(lp6163
Vrevid
p6164
aI321298516
aa(lp6165
Vparentid
p6166
aI321298260
aa(lp6167
Vuser
p6168
aVThe Wordsmith
p6169
aa(lp6170
Vtimestamp
p6171
ag15
((I2009
I10
I22
I0
I35
I23
I3
I295
I-1
t(dtRp6172
aa(lp6173
Vcomment
p6174
aV/* Sensationalism */ small changes
p6175
aatRp6176
ag2
((lp6177
(lp6178
Vrevid
p6179
aI321298260
aa(lp6180
Vparentid
p6181
aI321298162
aa(lp6182
Vminor
p6183
aV
aa(lp6184
Vuser
p6185
aVThe Wordsmith
p6186
aa(lp6187
Vtimestamp
p6188
ag15
((I2009
I10
I22
I0
I33
I0
I3
I295
I-1
t(dtRp6189
aa(lp6190
Vcomment
p6191
aV/* Passing vs. lasting significance */ oops, got the link wrong
p6192
aatRp6193
ag2
((lp6194
(lp6195
Vrevid
p6196
aI321298162
aa(lp6197
Vparentid
p6198
aI321298081
aa(lp6199
Vuser
p6200
aVFences and windows
p6201
aa(lp6202
Vtimestamp
p6203
ag15
((I2009
I10
I22
I0
I32
I16
I3
I295
I-1
t(dtRp6204
aa(lp6205
Vcomment
p6206
aV/* Passing vs. lasting significance */
p6207
aatRp6208
ag2
((lp6209
(lp6210
Vrevid
p6211
aI321298081
aa(lp6212
Vparentid
p6213
aI321298076
aa(lp6214
Vminor
p6215
aV
aa(lp6216
Vuser
p6217
aVThe Wordsmith
p6218
aa(lp6219
Vtimestamp
p6220
ag15
((I2009
I10
I22
I0
I31
I40
I3
I295
I-1
t(dtRp6221
aa(lp6222
Vcomment
p6223
aV/* Passing vs. lasting significance */ fixed wikilinks
p6224
aatRp6225
ag2
((lp6226
(lp6227
Vrevid
p6228
aI321298076
aa(lp6229
Vparentid
p6230
aI321297257
aa(lp6231
Vuser
p6232
aVLocation
p6233
aa(lp6234
Vtimestamp
p6235
ag15
((I2009
I10
I22
I0
I31
I36
I3
I295
I-1
t(dtRp6236
aa(lp6237
Vcomment
p6238
aV{{mergeto}}
p6239
aatRp6240
ag2
((lp6241
(lp6242
Vrevid
p6243
aI321297257
aa(lp6244
Vparentid
p6245
aI321296304
aa(lp6246
Vuser
p6247
aVFences and windows
p6248
aa(lp6249
Vtimestamp
p6250
ag15
((I2009
I10
I22
I0
I25
I20
I3
I295
I-1
t(dtRp6251
aa(lp6252
Vcomment
p6253
aV/* Merging */
p6254
aatRp6255
ag2
((lp6256
(lp6257
Vrevid
p6258
aI321296304
aa(lp6259
Vparentid
p6260
aI321294911
aa(lp6261
Vuser
p6262
aVFences and windows
p6263
aa(lp6264
Vtimestamp
p6265
ag15
((I2009
I10
I22
I0
I18
I26
I3
I295
I-1
t(dtRp6266
aa(lp6267
Vcomment
p6268
aV/* Passing vs. lasting significance */
p6269
aatRp6270
ag2
((lp6271
(lp6272
Vrevid
p6273
aI321294911
aa(lp6274
Vparentid
p6275
aI321294785
aa(lp6276
Vminor
p6277
aV
aa(lp6278
Vuser
p6279
aVFences and windows
p6280
aa(lp6281
Vtimestamp
p6282
ag15
((I2009
I10
I22
I0
I9
I19
I3
I295
I-1
t(dtRp6283
aa(lp6284
Vcomment
p6285
aV/* Passing vs. lasting events */
p6286
aatRp6287
ag2
((lp6288
(lp6289
Vrevid
p6290
aI321294785
aa(lp6291
Vparentid
p6292
aI321293911
aa(lp6293
Vuser
p6294
aVFences and windows
p6295
aa(lp6296
Vtimestamp
p6297
ag15
((I2009
I10
I22
I0
I8
I16
I3
I295
I-1
t(dtRp6298
aa(lp6299
Vcomment
p6300
aV
aatRp6301
ag2
((lp6302
(lp6303
Vrevid
p6304
aI321293911
aa(lp6305
Vparentid
p6306
aI321293713
aa(lp6307
Vuser
p6308
aVFences and windows
p6309
aa(lp6310
Vtimestamp
p6311
ag15
((I2009
I10
I22
I0
I2
I3
I3
I295
I-1
t(dtRp6312
aa(lp6313
Vcomment
p6314
aV/* Sensational events */
p6315
aatRp6316
ag2
((lp6317
(lp6318
Vrevid
p6319
aI321293713
aa(lp6320
Vparentid
p6321
aI321293520
aa(lp6322
Vuser
p6323
aVFences and windows
p6324
aa(lp6325
Vtimestamp
p6326
ag15
((I2009
I10
I22
I0
I0
I36
I3
I295
I-1
t(dtRp6327
aa(lp6328
Vcomment
p6329
aV/* Local events */
p6330
aatRp6331
ag2
((lp6332
(lp6333
Vrevid
p6334
aI321293520
aa(lp6335
Vparentid
p6336
aI321292976
aa(lp6337
Vminor
p6338
aV
aa(lp6339
Vuser
p6340
aVFences and windows
p6341
aa(lp6342
Vtimestamp
p6343
ag15
((I2009
I10
I21
I23
I59
I14
I2
I294
I-1
t(dtRp6344
aa(lp6345
Vcomment
p6346
aV/* Events of lasting significance */
p6347
aatRp6348
ag2
((lp6349
(lp6350
Vrevid
p6351
aI321292976
aa(lp6352
Vparentid
p6353
aI321292290
aa(lp6354
Vuser
p6355
aVFences and windows
p6356
aa(lp6357
Vtimestamp
p6358
ag15
((I2009
I10
I21
I23
I55
I40
I2
I294
I-1
t(dtRp6359
aa(lp6360
Vcomment
p6361
aV/* Events of lasting significance */
p6362
aatRp6363
ag2
((lp6364
(lp6365
Vrevid
p6366
aI321292290
aa(lp6367
Vparentid
p6368
aI321291711
aa(lp6369
Vuser
p6370
aVFences and windows
p6371
aa(lp6372
Vtimestamp
p6373
ag15
((I2009
I10
I21
I23
I50
I57
I2
I294
I-1
t(dtRp6374
aa(lp6375
Vcomment
p6376
aV/* Sensational events */
p6377
aatRp6378
ag2
((lp6379
(lp6380
Vrevid
p6381
aI321291711
aa(lp6382
Vparentid
p6383
aI321291426
aa(lp6384
Vuser
p6385
aVFences and windows
p6386
aa(lp6387
Vtimestamp
p6388
ag15
((I2009
I10
I21
I23
I46
I55
I2
I294
I-1
t(dtRp6389
aa(lp6390
Vcomment
p6391
aV
aatRp6392
ag2
((lp6393
(lp6394
Vrevid
p6395
aI321291426
aa(lp6396
Vparentid
p6397
aI320442724
aa(lp6398
Vuser
p6399
aVFences and windows
p6400
aa(lp6401
Vtimestamp
p6402
ag15
((I2009
I10
I21
I23
I44
I57
I2
I294
I-1
t(dtRp6403
aa(lp6404
Vcomment
p6405
aV
aatRp6406
ag2
((lp6407
(lp6408
Vrevid
p6409
aI320442724
aa(lp6410
Vparentid
p6411
aI320364321
aa(lp6412
Vuser
p6413
aVThe Wordsmith
p6414
aa(lp6415
Vtimestamp
p6416
ag15
((I2009
I10
I17
I18
I28
I29
I5
I290
I-1
t(dtRp6417
aa(lp6418
Vcomment
p6419
aVunder construction and reproposed
p6420
aatRp6421
ag2
((lp6422
(lp6423
Vrevid
p6424
aI320364321
aa(lp6425
Vparentid
p6426
aI320361790
aa(lp6427
Vuser
p6428
aVThe Wordsmith
p6429
aa(lp6430
Vtimestamp
p6431
ag15
((I2009
I10
I17
I7
I26
I8
I5
I290
I-1
t(dtRp6432
aa(lp6433
Vcomment
p6434
aV/* Individual stories */ rewrite section and remove amusement stories as too vague
p6435
aatRp6436
ag2
((lp6437
(lp6438
Vrevid
p6439
aI320361790
aa(lp6440
Vparentid
p6441
aI320360984
aa(lp6442
Vuser
p6443
aVThe Wordsmith
p6444
aa(lp6445
Vtimestamp
p6446
ag15
((I2009
I10
I17
I7
I1
I56
I5
I290
I-1
t(dtRp6447
aa(lp6448
Vcomment
p6449
aV/* Local events */ clarify
p6450
aatRp6451
ag2
((lp6452
(lp6453
Vrevid
p6454
aI320360984
aa(lp6455
Vparentid
p6456
aI320359106
aa(lp6457
Vuser
p6458
aVThe Wordsmith
p6459
aa(lp6460
Vtimestamp
p6461
ag15
((I2009
I10
I17
I6
I53
I47
I5
I290
I-1
t(dtRp6462
aa(lp6463
Vcomment
p6464
aV/* National/International events */ copyedit, rm section on market volatility as too vague, added section on deaths
p6465
aatRp6466
ag2
((lp6467
(lp6468
Vrevid
p6469
aI320359106
aa(lp6470
Vparentid
p6471
aI320355957
aa(lp6472
Vminor
p6473
aV
aa(lp6474
Vuser
p6475
aVThe Wordsmith
p6476
aa(lp6477
Vtimestamp
p6478
ag15
((I2009
I10
I17
I6
I36
I4
I5
I290
I-1
t(dtRp6479
aa(lp6480
Vcomment
p6481
aV/* Breakthroughs */ ce
p6482
aatRp6483
ag2
((lp6484
(lp6485
Vrevid
p6486
aI320355957
aa(lp6487
Vparentid
p6488
aI320354477
aa(lp6489
Vuser
p6490
aVThe Wordsmith
p6491
aa(lp6492
Vtimestamp
p6493
ag15
((I2009
I10
I17
I6
I3
I3
I5
I290
I-1
t(dtRp6494
aa(lp6495
Vcomment
p6496
aV/* National/International events */ copyedits and clarification
p6497
aatRp6498
ag2
((lp6499
(lp6500
Vrevid
p6501
aI320354477
aa(lp6502
Vparentid
p6503
aI255651753
aa(lp6504
Vminor
p6505
aV
aa(lp6506
Vuser
p6507
aVThe Wordsmith
p6508
aa(lp6509
Vtimestamp
p6510
ag15
((I2009
I10
I17
I5
I48
I24
I5
I290
I-1
t(dtRp6511
aa(lp6512
Vcomment
p6513
aV/* Breakthroughs */ copyedit
p6514
aatRp6515
ag2
((lp6516
(lp6517
Vrevid
p6518
aI255651753
aa(lp6519
Vparentid
p6520
aI242292863
aa(lp6521
Vuser
p6522
aVRenamedUser jaskldjslak903
p6523
aa(lp6524
Vtimestamp
p6525
ag15
((I2008
I12
I3
I16
I19
I36
I2
I338
I-1
t(dtRp6526
aa(lp6527
Vcomment
p6528
aVfailed, discussion died in talk,  poor idea anyways, agree with the local event though, but that could be covered elsewhere
p6529
aatRp6530
ag2
((lp6531
(lp6532
Vrevid
p6533
aI242292863
aa(lp6534
Vparentid
p6535
aI237954153
aa(lp6536
Vuser
p6537
aVRonnotel
p6538
aa(lp6539
Vtimestamp
p6540
ag15
((I2008
I10
I1
I17
I43
I52
I2
I275
I-1
t(dtRp6541
aa(lp6542
Vcomment
p6543
aV/* National/International events */ propose notability standards for market volatility
p6544
aatRp6545
ag2
((lp6546
(lp6547
Vrevid
p6548
aI237954153
aa(lp6549
Vparentid
p6550
aI237952623
aa(lp6551
Vminor
p6552
aV
aa(lp6553
Vuser
p6554
aVBlack Falcon
p6555
aa(lp6556
Vtimestamp
p6557
ag15
((I2008
I9
I12
I15
I54
I43
I4
I256
I-1
t(dtRp6558
aa(lp6559
Vcomment
p6560
aVreverting test
p6561
aatRp6562
ag2
((lp6563
(lp6564
Vrevid
p6565
aI237952623
aa(lp6566
Vparentid
p6567
aI237952275
aa(lp6568
Vuser
p6569
aV78.149.136.182
p6570
aa(lp6571
Vanon
p6572
aV
aa(lp6573
Vtimestamp
p6574
ag15
((I2008
I9
I12
I15
I46
I13
I4
I256
I-1
t(dtRp6575
aa(lp6576
Vcomment
p6577
aV
aatRp6578
ag2
((lp6579
(lp6580
Vrevid
p6581
aI237952275
aa(lp6582
Vparentid
p6583
aI237951987
aa(lp6584
Vuser
p6585
aV78.149.136.182
p6586
aa(lp6587
Vanon
p6588
aV
aa(lp6589
Vtimestamp
p6590
ag15
((I2008
I9
I12
I15
I44
I29
I4
I256
I-1
t(dtRp6591
aa(lp6592
Vcomment
p6593
aV
aatRp6594
ag2
((lp6595
(lp6596
Vrevid
p6597
aI237951987
aa(lp6598
Vparentid
p6599
aI234137610
aa(lp6600
Vuser
p6601
aV78.149.136.182
p6602
aa(lp6603
Vanon
p6604
aV
aa(lp6605
Vtimestamp
p6606
ag15
((I2008
I9
I12
I15
I43
I9
I4
I256
I-1
t(dtRp6607
aa(lp6608
Vcomment
p6609
aV
aatRp6610
ag2
((lp6611
(lp6612
Vrevid
p6613
aI234137610
aa(lp6614
Vparentid
p6615
aI234137534
aa(lp6616
Vminor
p6617
aV
aa(lp6618
Vuser
p6619
aVBlack Falcon
p6620
aa(lp6621
Vtimestamp
p6622
ag15
((I2008
I8
I25
I14
I9
I16
I0
I238
I-1
t(dtRp6623
aa(lp6624
Vcomment
p6625
aV/* Crime */ tweak
p6626
aatRp6627
ag2
((lp6628
(lp6629
Vrevid
p6630
aI234137534
aa(lp6631
Vparentid
p6632
aI232519406
aa(lp6633
Vminor
p6634
aV
aa(lp6635
Vuser
p6636
aVBlack Falcon
p6637
aa(lp6638
Vtimestamp
p6639
ag15
((I2008
I8
I25
I14
I8
I55
I0
I238
I-1
t(dtRp6640
aa(lp6641
Vcomment
p6642
aV/* Crime */ fix link
p6643
aatRp6644
ag2
((lp6645
(lp6646
Vrevid
p6647
aI232519406
aa(lp6648
Vparentid
p6649
aI232504521
aa(lp6650
Vuser
p6651
aVUnitedStatesian
p6652
aa(lp6653
Vtimestamp
p6654
ag15
((I2008
I8
I17
I17
I16
I1
I6
I230
I-1
t(dtRp6655
aa(lp6656
Vcomment
p6657
aV/* Crime */ fix link
p6658
aatRp6659
ag2
((lp6660
(lp6661
Vrevid
p6662
aI232504521
aa(lp6663
Vparentid
p6664
aI232503356
aa(lp6665
Vuser
p6666
aVSebwite
p6667
aa(lp6668
Vtimestamp
p6669
ag15
((I2008
I8
I17
I15
I26
I51
I6
I230
I-1
t(dtRp6670
aa(lp6671
Vcomment
p6672
aVdisasters
p6673
aatRp6674
ag2
((lp6675
(lp6676
Vrevid
p6677
aI232503356
aa(lp6678
Vparentid
p6679
aI231507947
aa(lp6680
Vuser
p6681
aVSebwite
p6682
aa(lp6683
Vtimestamp
p6684
ag15
((I2008
I8
I17
I15
I16
I34
I6
I230
I-1
t(dtRp6685
aa(lp6686
Vcomment
p6687
aV/* National/International events */ breakthroughs, recalls
p6688
aatRp6689
ag2
((lp6690
(lp6691
Vrevid
p6692
aI231507947
aa(lp6693
Vparentid
p6694
aI231320719
aa(lp6695
Vuser
p6696
aVSebwite
p6697
aa(lp6698
Vtimestamp
p6699
ag15
((I2008
I8
I12
I19
I3
I34
I1
I225
I-1
t(dtRp6700
aa(lp6701
Vcomment
p6702
aVamusement stories
p6703
aatRp6704
ag2
((lp6705
(lp6706
Vrevid
p6707
aI231320719
aa(lp6708
Vparentid
p6709
aI231320505
aa(lp6710
Vminor
p6711
aV
aa(lp6712
Vuser
p6713
aVSebwite
p6714
aa(lp6715
Vtimestamp
p6716
ag15
((I2008
I8
I11
I22
I10
I17
I0
I224
I-1
t(dtRp6717
aa(lp6718
Vcomment
p6719
aV
aatRp6720
ag2
((lp6721
(lp6722
Vrevid
p6723
aI231320505
aa(lp6724
Vparentid
p6725
aI231318951
aa(lp6726
Vuser
p6727
aVSebwite
p6728
aa(lp6729
Vtimestamp
p6730
ag15
((I2008
I8
I11
I22
I9
I23
I0
I224
I-1
t(dtRp6731
aa(lp6732
Vcomment
p6733
aVns
p6734
aatRp6735
ag2
((lp6736
(lp6737
Vrevid
p6738
aI231318951
aa(lp6739
Vparentid
p6740
aI231191364
aa(lp6741
Vuser
p6742
aVSebwite
p6743
aa(lp6744
Vtimestamp
p6745
ag15
((I2008
I8
I11
I22
I1
I26
I0
I224
I-1
t(dtRp6746
aa(lp6747
Vcomment
p6748
aVlead paragraph
p6749
aatRp6750
ag2
((lp6751
(lp6752
Vrevid
p6753
aI231191364
aa(lp6754
Vparentid
p6755
aI0
aa(lp6756
Vuser
p6757
aVSebwite
p6758
aa(lp6759
Vtimestamp
p6760
ag15
((I2008
I8
I11
I8
I47
I34
I0
I224
I-1
t(dtRp6761
aa(lp6762
Vcomment
p6763
aV[[WP:AES|\u2190]] Created page with '{{construction}} {{proposed|WP:EVENT}}  ==Local events== A news event reported by the media only within the immediate region is generally not notable, and does not...'
p6764
aatRp6765
a.