(lp1
ccollections
OrderedDict
p2
((lp3
(lp4
Vrevid
p5
aI942106488
aa(lp6
Vparentid
p7
aI942104564
aa(lp8
Vuser
p9
aVMasem
p10
aa(lp11
Vtimestamp
p12
actime
struct_time
p13
((I2020
I2
I22
I17
I11
I37
I5
I53
I-1
t(dtRp14
aa(lp15
Vcomment
p16
aVReverted [[WP:AGF|good faith]] edits by [[Special:Contributions/Bearian|Bearian]] ([[User talk:Bearian|talk]]): This needs discussion as this ties with NOT#CRYSTAL ([[WP:TW|TW]])
p17
aatRp18
ag2
((lp19
(lp20
Vrevid
p21
aI942104564
aa(lp22
Vparentid
p23
aI939777068
aa(lp24
Vuser
p25
aVBearian
p26
aa(lp27
Vtimestamp
p28
ag13
((I2020
I2
I22
I16
I58
I32
I5
I53
I-1
t(dtRp29
aa(lp30
Vcomment
p31
aV/* Breaking news */ Next year's events generally are not predictable; therefore, articles titled "2021 in Country", and so forth, should be deleted. (See [[Wikipedia:Articles for deletion/2021 in Canada]] and similar discussions at AfD.) The next year's general article listing ''probable'' events, such as electios, major festivals, etc., can be created in November or December of the prior year.
p32
aatRp33
ag2
((lp34
(lp35
Vrevid
p36
aI939777068
aa(lp37
Vparentid
p38
aI936944132
aa(lp39
Vuser
p40
aVGene93k
p41
aa(lp42
Vtimestamp
p43
ag13
((I2020
I2
I8
I17
I27
I54
I5
I39
I-1
t(dtRp44
aa(lp45
Vcomment
p46
aVAdding local [[Wikipedia:Short description|short description]]: "Wikipedia guideline for notability of events", overriding Wikidata description "Wikipedia policy for notability of events" ([[Wikipedia:Shortdesc helper|Shortdesc helper]])
p47
aatRp48
ag2
((lp49
(lp50
Vrevid
p51
aI936944132
aa(lp52
Vparentid
p53
aI936841220
aa(lp54
Vuser
p55
aVAtlantic306
p56
aa(lp57
Vtimestamp
p58
ag13
((I2020
I1
I21
I23
I59
I27
I1
I21
I-1
t(dtRp59
aa(lp60
Vcomment
p61
aVReverted to revision 928198342 by [[Special:Contributions/Bsherr|Bsherr]] ([[User talk:Bsherr|talk]]): Needs discussion ([[WP:TW|TW]])
p62
aatRp63
ag2
((lp64
(lp65
Vrevid
p66
aI936841220
aa(lp67
Vparentid
p68
aI928198342
aa(lp69
Vuser
p70
aV2604:2000:E010:1100:1D06:C657:E7B:7CFE
p71
aa(lp72
Vanon
p73
aV
aa(lp74
Vtimestamp
p75
ag13
((I2020
I1
I21
I9
I46
I43
I1
I21
I-1
t(dtRp76
aa(lp77
Vcomment
p78
aV/* People notable for only one event */ revise to track BLP1E, which this is meant to summarize
p79
aatRp80
ag2
((lp81
(lp82
Vrevid
p83
aI928198342
aa(lp84
Vparentid
p85
aI928198176
aa(lp86
Vminor
p87
aV
aa(lp88
Vuser
p89
aVBsherr
p90
aa(lp91
Vtimestamp
p92
ag13
((I2019
I11
I27
I13
I6
I44
I2
I331
I-1
t(dtRp93
aa(lp94
Vcomment
p95
aV/* top */ removing extra brace
p96
aatRp97
ag2
((lp98
(lp99
Vrevid
p100
aI928198176
aa(lp101
Vparentid
p102
aI928198002
aa(lp103
Vminor
p104
aV
aa(lp105
Vuser
p106
aVBsherr
p107
aa(lp108
Vtimestamp
p109
ag13
((I2019
I11
I27
I13
I5
I51
I2
I331
I-1
t(dtRp110
aa(lp111
Vcomment
p112
aV/* People notable for only one event */ replacing shortcuts with full page names
p113
aatRp114
ag2
((lp115
(lp116
Vrevid
p117
aI928198002
aa(lp118
Vparentid
p119
aI928197528
aa(lp120
Vminor
p121
aV
aa(lp122
Vuser
p123
aVBsherr
p124
aa(lp125
Vtimestamp
p126
ag13
((I2019
I11
I27
I13
I4
I19
I2
I331
I-1
t(dtRp127
aa(lp128
Vcomment
p129
aV/* Alternatives to deletion */ replacing shortcut with full page name, bypassing redirects
p130
aatRp131
ag2
((lp132
(lp133
Vrevid
p134
aI928197528
aa(lp135
Vparentid
p136
aI928155035
aa(lp137
Vminor
p138
aV
aa(lp139
Vuser
p140
aVBsherr
p141
aa(lp142
Vtimestamp
p143
ag13
((I2019
I11
I27
I12
I59
I50
I2
I331
I-1
t(dtRp144
aa(lp145
Vcomment
p146
aV/* top */ improving hatnote template, code efficiency, emphasis per [[MOS:EMPHASIS]]
p147
aatRp148
ag2
((lp149
(lp150
Vrevid
p151
aI928155035
aa(lp152
Vparentid
p153
aI928154940
aa(lp154
Vminor
p155
aV
aa(lp156
Vuser
p157
aVBsherr
p158
aa(lp159
Vtimestamp
p160
ag13
((I2019
I11
I27
I4
I57
I1
I2
I331
I-1
t(dtRp161
aa(lp162
Vcomment
p163
aV/* Breaking news */ replacing shortcut with full page name
p164
aatRp165
ag2
((lp166
(lp167
Vrevid
p168
aI928154940
aa(lp169
Vparentid
p170
aI928154693
aa(lp171
Vminor
p172
aV
aa(lp173
Vuser
p174
aVBsherr
p175
aa(lp176
Vtimestamp
p177
ag13
((I2019
I11
I27
I4
I55
I35
I2
I331
I-1
t(dtRp178
aa(lp179
Vcomment
p180
aV/* Sensationalism */ bypassing template redirect, replacing shortcut with full page name
p181
aatRp182
ag2
((lp183
(lp184
Vrevid
p185
aI928154693
aa(lp186
Vparentid
p187
aI914797200
aa(lp188
Vuser
p189
aVBsherr
p190
aa(lp191
Vtimestamp
p192
ag13
((I2019
I11
I27
I4
I52
I2
I2
I331
I-1
t(dtRp193
aa(lp194
Vcomment
p195
aV/* Routine coverage */ improving hatnote
p196
aatRp197
ag2
((lp198
(lp199
Vrevid
p200
aI914797200
aa(lp201
Vparentid
p202
aI880178777
aa(lp203
Vuser
p204
aVNosebagbear
p205
aa(lp206
Vtimestamp
p207
ag13
((I2019
I9
I9
I12
I32
I5
I0
I252
I-1
t(dtRp208
aa(lp209
Vcomment
p210
aVBold addition of event co-ordinator hatnote
p211
aatRp212
ag2
((lp213
(lp214
Vrevid
p215
aI880178777
aa(lp216
Vparentid
p217
aI880156921
aa(lp218
Vuser
p219
aVStaszek Lem
p220
aa(lp221
Vtimestamp
p222
ag13
((I2019
I1
I25
I21
I22
I9
I4
I25
I-1
t(dtRp223
aa(lp224
Vcomment
p225
aV/* Don't rush to delete articles */
p226
aatRp227
ag2
((lp228
(lp229
Vrevid
p230
aI880156921
aa(lp231
Vparentid
p232
aI874678109
aa(lp233
Vuser
p234
aVPigsonthewing
p235
aa(lp236
Vtimestamp
p237
ag13
((I2019
I1
I25
I18
I33
I21
I4
I25
I-1
t(dtRp238
aa(lp239
Vcomment
p240
aV/* Don't rush to create articles */ June 2009 Washington Metro train collision
p241
aatRp242
ag2
((lp243
(lp244
Vrevid
p245
aI874678109
aa(lp246
Vparentid
p247
aI866691178
aa(lp248
Vuser
p249
aVStaszek Lem
p250
aa(lp251
Vtimestamp
p252
ag13
((I2018
I12
I20
I21
I35
I38
I3
I354
I-1
t(dtRp253
aa(lp254
Vcomment
p255
aV/* top */ nutshell expanded to match the content
p256
aatRp257
ag2
((lp258
(lp259
Vrevid
p260
aI866691178
aa(lp261
Vparentid
p262
aI866518377
aa(lp263
Vuser
p264
aVBarbadosKen
p265
aa(lp266
Vtimestamp
p267
ag13
((I2018
I10
I31
I22
I38
I8
I2
I304
I-1
t(dtRp268
aa(lp269
Vcomment
p270
aV/* Depth of coverage */ use a different form of  the template {{redirect}} since the disambiguation page refers to only one other possibility.
p271
aatRp272
ag2
((lp273
(lp274
Vrevid
p275
aI866518377
aa(lp276
Vparentid
p277
aI866022854
aa(lp278
Vuser
p279
aVBarbadosKen
p280
aa(lp281
Vtimestamp
p282
ag13
((I2018
I10
I30
I20
I45
I11
I1
I303
I-1
t(dtRp283
aa(lp284
Vcomment
p285
aV/* Depth of coverage */ Add {{redirect}} template
p286
aatRp287
ag2
((lp288
(lp289
Vrevid
p290
aI866022854
aa(lp291
Vparentid
p292
aI866022577
aa(lp293
Vminor
p294
aV
aa(lp295
Vuser
p296
aVBsherr
p297
aa(lp298
Vtimestamp
p299
ag13
((I2018
I10
I27
I19
I26
I11
I5
I300
I-1
t(dtRp300
aa(lp301
Vcomment
p302
aV/* Criminal acts */ expanding shortcut
p303
aatRp304
ag2
((lp305
(lp306
Vrevid
p307
aI866022577
aa(lp308
Vparentid
p309
aI863833852
aa(lp310
Vminor
p311
aV
aa(lp312
Vuser
p313
aVBsherr
p314
aa(lp315
Vtimestamp
p316
ag13
((I2018
I10
I27
I19
I23
I49
I5
I300
I-1
t(dtRp317
aa(lp318
Vcomment
p319
aV/* Criminal acts */ adding comment per [[Wikipedia:Manual of Style/Linking#Broken section links]]
p320
aatRp321
ag2
((lp322
(lp323
Vrevid
p324
aI863833852
aa(lp325
Vparentid
p326
aI863833812
aa(lp327
Vuser
p328
aVDavidgoodheart
p329
aa(lp330
Vtimestamp
p331
ag13
((I2018
I10
I13
I10
I51
I52
I5
I286
I-1
t(dtRp332
aa(lp333
Vcomment
p334
aV/* Inclusion criteria */
p335
aatRp336
ag2
((lp337
(lp338
Vrevid
p339
aI863833812
aa(lp340
Vparentid
p341
aI851326630
aa(lp342
Vuser
p343
aVDavidgoodheart
p344
aa(lp345
Vtimestamp
p346
ag13
((I2018
I10
I13
I10
I51
I19
I5
I286
I-1
t(dtRp347
aa(lp348
Vcomment
p349
aV/* Inclusion criteria */
p350
aatRp351
ag2
((lp352
(lp353
Vrevid
p354
aI851326630
aa(lp355
Vparentid
p356
aI841323068
aa(lp357
Vuser
p358
aVMrX
p359
aa(lp360
Vtimestamp
p361
ag13
((I2018
I7
I21
I14
I49
I37
I5
I202
I-1
t(dtRp362
aa(lp363
Vcomment
p364
aV/* The coverage */ +{{clear}}
p365
aatRp366
ag2
((lp367
(lp368
Vrevid
p369
aI841323068
aa(lp370
Vparentid
p371
aI837603014
aa(lp372
Vuser
p373
aVMoxy
p374
aa(lp375
Vtimestamp
p376
ag13
((I2018
I5
I15
I4
I5
I40
I1
I135
I-1
t(dtRp377
aa(lp378
Vcomment
p379
aV/* Routine coverage */ ce
p380
aatRp381
ag2
((lp382
(lp383
Vrevid
p384
aI837603014
aa(lp385
Vparentid
p386
aI837602877
aa(lp387
Vuser
p388
aVRhododendrites
p389
aa(lp390
Vtimestamp
p391
ag13
((I2018
I4
I21
I21
I26
I59
I5
I111
I-1
t(dtRp392
aa(lp393
Vcomment
p394
aV/* Don't rush to create articles */ actually, derp, both start with "don't rush" using this one instead
p395
aatRp396
ag2
((lp397
(lp398
Vrevid
p399
aI837602877
aa(lp400
Vparentid
p401
aI832802395
aa(lp402
Vuser
p403
aVRhododendrites
p404
aa(lp405
Vtimestamp
p406
ag13
((I2018
I4
I21
I21
I26
I4
I5
I111
I-1
t(dtRp407
aa(lp408
Vcomment
p409
aV/* Don't rush to create articles */ given how frequently this section comes up when WP:DELAY comes up, a shortcut seems sensible
p410
aatRp411
ag2
((lp412
(lp413
Vrevid
p414
aI832802395
aa(lp415
Vparentid
p416
aI831013913
aa(lp417
Vuser
p418
aVLuckyLouie
p419
aa(lp420
Vtimestamp
p421
ag13
((I2018
I3
I28
I2
I21
I14
I2
I87
I-1
t(dtRp422
aa(lp423
Vcomment
p424
aV/* Sensationalism */ More explicit shortcut
p425
aatRp426
ag2
((lp427
(lp428
Vrevid
p429
aI831013913
aa(lp430
Vparentid
p431
aI830896336
aa(lp432
Vuser
p433
aVThinker78
p434
aa(lp435
Vtimestamp
p436
ag13
((I2018
I3
I18
I6
I25
I6
I6
I77
I-1
t(dtRp437
aa(lp438
Vcomment
p439
aVUndid revision 830896336 by [[Special:Contributions/Derekzaa|Derekzaa]] ([[User talk:Derekzaa|talk]]) comma doesn't seem out of place (brief, often light and amusing, stories)
p440
aatRp441
ag2
((lp442
(lp443
Vrevid
p444
aI830896336
aa(lp445
Vparentid
p446
aI826170936
aa(lp447
Vminor
p448
aV
aa(lp449
Vuser
p450
aVDerekzaa
p451
aa(lp452
Vtimestamp
p453
ag13
((I2018
I3
I17
I15
I12
I2
I5
I76
I-1
t(dtRp454
aa(lp455
Vcomment
p456
aVOut-of-place comma removed.
p457
aatRp458
ag2
((lp459
(lp460
Vrevid
p461
aI826170936
aa(lp462
Vparentid
p463
aI823922332
aa(lp464
Vuser
p465
aV\u0da2\u0db4\u0dc3
p466
aa(lp467
Vtimestamp
p468
ag13
((I2018
I2
I17
I17
I3
I17
I5
I48
I-1
t(dtRp469
aa(lp470
Vcomment
p471
aVUndid revision 822158501 by [[Special:Contributions/Thinker78|Thinker78]] ([[User talk:Thinker78|talk]]) I think the RfC outcome is pretty clear.
p472
aatRp473
ag2
((lp474
(lp475
Vrevid
p476
aI823922332
aa(lp477
Vparentid
p478
aI822158501
aa(lp479
Vuser
p480
aVHydronium Hydroxide
p481
aa(lp482
Vtimestamp
p483
ag13
((I2018
I2
I4
I6
I37
I55
I6
I35
I-1
t(dtRp484
aa(lp485
Vcomment
p486
aV/* Inclusion criteria */ number EVENTCRIT types to assist AFD
p487
aatRp488
ag2
((lp489
(lp490
Vrevid
p491
aI822158501
aa(lp492
Vparentid
p493
aI822103521
aa(lp494
Vuser
p495
aVThinker78
p496
aa(lp497
Vtimestamp
p498
ag13
((I2018
I1
I24
I19
I7
I48
I2
I24
I-1
t(dtRp499
aa(lp500
Vcomment
p501
aVUndid revision 822103521 by [[Special:Contributions/\u0da2\u0db4\u0dc3|\u0da2\u0db4\u0dc3]] ([[User talk:\u0da2\u0db4\u0dc3|talk]]) rv per [[WP:WPEDIT]]. I'm objecting to the change.
p502
aatRp503
ag2
((lp504
(lp505
Vrevid
p506
aI822103521
aa(lp507
Vparentid
p508
aI821549661
aa(lp509
Vuser
p510
aV\u0da2\u0db4\u0dc3
p511
aa(lp512
Vtimestamp
p513
ag13
((I2018
I1
I24
I12
I1
I58
I2
I24
I-1
t(dtRp514
aa(lp515
Vcomment
p516
aVSee talk. Objector has been active elsewhere on Wikipedia since but has not [[WP:SILENCE|responded]] to requests for clarification on they disagree with this description of common practice.
p517
aatRp518
ag2
((lp519
(lp520
Vrevid
p521
aI821549661
aa(lp522
Vparentid
p523
aI821224570
aa(lp524
Vuser
p525
aVThinker78
p526
aa(lp527
Vtimestamp
p528
ag13
((I2018
I1
I21
I4
I53
I24
I6
I21
I-1
t(dtRp529
aa(lp530
Vcomment
p531
aVUndid revision 821224570 by [[Special:Contributions/\u0da2\u0db4\u0dc3|\u0da2\u0db4\u0dc3]] ([[User talk:\u0da2\u0db4\u0dc3|talk]]) guideline is primarily for events as its title implies, there are other guidelines for people.
p532
aatRp533
ag2
((lp534
(lp535
Vrevid
p536
aI821224570
aa(lp537
Vparentid
p538
aI821180474
aa(lp539
Vuser
p540
aV\u0da2\u0db4\u0dc3
p541
aa(lp542
Vtimestamp
p543
ag13
((I2018
I1
I19
I3
I46
I52
I4
I19
I-1
t(dtRp544
aa(lp545
Vcomment
p546
aV/* Sensationalism */ because some newbies are ridiculous
p547
aatRp548
ag2
((lp549
(lp550
Vrevid
p551
aI821180474
aa(lp552
Vparentid
p553
aI803615550
aa(lp554
Vuser
p555
aVThinker78
p556
aa(lp557
Vtimestamp
p558
ag13
((I2018
I1
I18
I21
I58
I3
I3
I18
I-1
t(dtRp559
aa(lp560
Vcomment
p561
aV/* Sensationalism */ added policy link
p562
aatRp563
ag2
((lp564
(lp565
Vrevid
p566
aI803615550
aa(lp567
Vparentid
p568
aI785537055
aa(lp569
Vuser
p570
aVFuzheado
p571
aa(lp572
Vtimestamp
p573
ag13
((I2017
I10
I3
I16
I6
I15
I1
I276
I-1
t(dtRp574
aa(lp575
Vcomment
p576
aV/* Wikinews */ - rewording this, as this has not really been the case for a long time, and it's not clear there was consensus in the first place for the original wording
p577
aatRp578
ag2
((lp579
(lp580
Vrevid
p581
aI785537055
aa(lp582
Vparentid
p583
aI785537016
aa(lp584
Vminor
p585
aV
aa(lp586
Vuser
p587
aVC.Fred
p588
aa(lp589
Vtimestamp
p590
ag13
((I2017
I6
I14
I2
I33
I42
I2
I165
I-1
t(dtRp591
aa(lp592
Vcomment
p593
aVReverted edits by [[Special:Contribs/Gippi yadav722|Gippi yadav722]] ([[User talk:Gippi yadav722|talk]]) to last version by Jabberwoch
p594
aatRp595
ag2
((lp596
(lp597
Vrevid
p598
aI785537016
aa(lp599
Vparentid
p600
aI783486529
aa(lp601
Vminor
p602
aV
aa(lp603
Vuser
p604
aVGippi yadav722
p605
aa(lp606
Vtimestamp
p607
ag13
((I2017
I6
I14
I2
I33
I24
I2
I165
I-1
t(dtRp608
aa(lp609
Vcomment
p610
aV/* Inclusion criteria */
p611
aatRp612
ag2
((lp613
(lp614
Vrevid
p615
aI783486529
aa(lp616
Vparentid
p617
aI782416836
aa(lp618
Vuser
p619
aVJabberwoch
p620
aa(lp621
Vtimestamp
p622
ag13
((I2017
I6
I2
I16
I42
I8
I4
I153
I-1
t(dtRp623
aa(lp624
Vcomment
p625
aV/* Routine coverage */ -"pre-"scheduled events Spelling/grammar correction
p626
aatRp627
ag2
((lp628
(lp629
Vrevid
p630
aI782416836
aa(lp631
Vparentid
p632
aI782416468
aa(lp633
Vminor
p634
aV
aa(lp635
Vuser
p636
aVShellwood
p637
aa(lp638
Vtimestamp
p639
ag13
((I2017
I5
I26
I19
I27
I14
I4
I146
I-1
t(dtRp640
aa(lp641
Vcomment
p642
aVReverted edits by [[Special:Contributions/101.50.83.2|101.50.83.2]] ([[User talk:101.50.83.2|talk]]) ([[WP:HG|HG]]) (3.1.22)
p643
aatRp644
ag2
((lp645
(lp646
Vrevid
p647
aI782416468
aa(lp648
Vparentid
p649
aI782416349
aa(lp650
Vuser
p651
aV101.50.83.2
p652
aa(lp653
Vanon
p654
aV
aa(lp655
Vtimestamp
p656
ag13
((I2017
I5
I26
I19
I24
I30
I4
I146
I-1
t(dtRp657
aa(lp658
Vcomment
p659
aV/* The coverage */
p660
aatRp661
ag2
((lp662
(lp663
Vrevid
p664
aI782416349
aa(lp665
Vparentid
p666
aI776412631
aa(lp667
Vuser
p668
aV101.50.83.2
p669
aa(lp670
Vanon
p671
aV
aa(lp672
Vtimestamp
p673
ag13
((I2017
I5
I26
I19
I23
I34
I4
I146
I-1
t(dtRp674
aa(lp675
Vcomment
p676
aV/* The event */
p677
aatRp678
ag2
((lp679
(lp680
Vrevid
p681
aI776412631
aa(lp682
Vparentid
p683
aI757276828
aa(lp684
Vuser
p685
aVMr. Guye
p686
aa(lp687
Vtimestamp
p688
ag13
((I2017
I4
I20
I21
I1
I20
I3
I110
I-1
t(dtRp689
aa(lp690
Vcomment
p691
aV/* Routine coverage */ I have turned "opposition essay" notice, which was formatted to resemble a [[WP:HATNOTE|hatnote]], into an actual hatnote using {{[[Template:Hatnote|Hatnote]]}}
p692
aatRp693
ag2
((lp694
(lp695
Vrevid
p696
aI757276828
aa(lp697
Vparentid
p698
aI756100050
aa(lp699
Vuser
p700
aVBDD
p701
aa(lp702
Vtimestamp
p703
ag13
((I2016
I12
I29
I20
I6
I16
I3
I364
I-1
t(dtRp704
aa(lp705
Vcomment
p706
aVremoving hatnote
p707
aatRp708
ag2
((lp709
(lp710
Vrevid
p711
aI756100050
aa(lp712
Vparentid
p713
aI755366320
aa(lp714
Vuser
p715
aVSeed of Cosmo 15087
p716
aa(lp717
Vtimestamp
p718
ag13
((I2016
I12
I22
I0
I32
I7
I3
I357
I-1
t(dtRp719
aa(lp720
Vcomment
p721
aV/* The coverage */ Adding the shortcut [[WP:COVERAGE]]
p722
aatRp723
ag2
((lp724
(lp725
Vrevid
p726
aI755366320
aa(lp727
Vparentid
p728
aI755366287
aa(lp729
Vminor
p730
aV
aa(lp731
Vuser
p732
aVHeadbomb
p733
aa(lp734
Vtimestamp
p735
ag13
((I2016
I12
I17
I16
I13
I4
I5
I352
I-1
t(dtRp736
aa(lp737
Vcomment
p738
aV/* Routine coverage */ 1
p739
aatRp740
ag2
((lp741
(lp742
Vrevid
p743
aI755366287
aa(lp744
Vparentid
p745
aI755366176
aa(lp746
Vuser
p747
aVHeadbomb
p748
aa(lp749
Vtimestamp
p750
ag13
((I2016
I12
I17
I16
I12
I48
I5
I352
I-1
t(dtRp751
aa(lp752
Vcomment
p753
aV/* Depth of coverage */ 3 309-327
p754
aatRp755
ag2
((lp756
(lp757
Vrevid
p758
aI755366176
aa(lp759
Vparentid
p760
aI755365440
aa(lp761
Vuser
p762
aVHeadbomb
p763
aa(lp764
Vtimestamp
p765
ag13
((I2016
I12
I17
I16
I11
I59
I5
I352
I-1
t(dtRp766
aa(lp767
Vcomment
p768
aV/* Routine coverage */ 2094279
p769
aatRp770
ag2
((lp771
(lp772
Vrevid
p773
aI755365440
aa(lp774
Vparentid
p775
aI755364981
aa(lp776
Vuser
p777
aVHeadbomb
p778
aa(lp779
Vtimestamp
p780
ag13
((I2016
I12
I17
I16
I6
I44
I5
I352
I-1
t(dtRp781
aa(lp782
Vcomment
p783
aV/* Depth of coverage */ 10.1207/s15506878jobem4703_1
p784
aatRp785
ag2
((lp786
(lp787
Vrevid
p788
aI755364981
aa(lp789
Vparentid
p790
aI755364924
aa(lp791
Vminor
p792
aV
aa(lp793
Vuser
p794
aVCitation bot
p795
aa(lp796
Vtimestamp
p797
ag13
((I2016
I12
I17
I16
I3
I47
I5
I352
I-1
t(dtRp798
aa(lp799
Vcomment
p800
aVAdd: isbn. You can [[WP:UCB|use this bot]] yourself. [[WP:DBUG|Report bugs here]].
p801
aatRp802
ag2
((lp803
(lp804
Vrevid
p805
aI755364924
aa(lp806
Vparentid
p807
aI755364717
aa(lp808
Vuser
p809
aVHeadbomb
p810
aa(lp811
Vtimestamp
p812
ag13
((I2016
I12
I17
I16
I3
I33
I5
I352
I-1
t(dtRp813
aa(lp814
Vcomment
p815
aV/* Depth of coverage */ ce
p816
aatRp817
ag2
((lp818
(lp819
Vrevid
p820
aI755364717
aa(lp821
Vparentid
p822
aI738357280
aa(lp823
Vuser
p824
aVHeadbomb
p825
aa(lp826
Vtimestamp
p827
ag13
((I2016
I12
I17
I16
I2
I21
I5
I352
I-1
t(dtRp828
aa(lp829
Vcomment
p830
aV/* Routine coverage */ ce
p831
aatRp832
ag2
((lp833
(lp834
Vrevid
p835
aI738357280
aa(lp836
Vparentid
p837
aI730255039
aa(lp838
Vuser
p839
aVPaulmcdonald
p840
aa(lp841
Vtimestamp
p842
ag13
((I2016
I9
I8
I13
I34
I22
I3
I252
I-1
t(dtRp843
aa(lp844
Vcomment
p845
aV/* Routine coverage */
p846
aatRp847
ag2
((lp848
(lp849
Vrevid
p850
aI730255039
aa(lp851
Vparentid
p852
aI729653515
aa(lp853
Vuser
p854
aVBolter21
p855
aa(lp856
Vtimestamp
p857
ag13
((I2016
I7
I17
I20
I28
I6
I6
I199
I-1
t(dtRp858
aa(lp859
Vcomment
p860
aVUndid revision 729653515 by [[Special:Contributions/Bachcell|Bachcell]] ([[User talk:Bachcell|talk]]) You can't just change the standards of Wikipedia with no discussions
p861
aatRp862
ag2
((lp863
(lp864
Vrevid
p865
aI729653515
aa(lp866
Vparentid
p867
aI726591756
aa(lp868
Vuser
p869
aVBachcell
p870
aa(lp871
Vtimestamp
p872
ag13
((I2016
I7
I13
I17
I43
I40
I2
I195
I-1
t(dtRp873
aa(lp874
Vcomment
p875
aV/* Lasting effects */  not criterion for deletion
p876
aatRp877
ag2
((lp878
(lp879
Vrevid
p880
aI726591756
aa(lp881
Vparentid
p882
aI724339463
aa(lp883
Vuser
p884
aVAtlantic306
p885
aa(lp886
Vtimestamp
p887
ag13
((I2016
I6
I23
I3
I46
I19
I3
I175
I-1
t(dtRp888
aa(lp889
Vcomment
p890
aV/* Routine coverage */ A long obituary in a major broadsheet such as the U.K's Guardian, Daily Telegraph or Times is not routine.
p891
aatRp892
ag2
((lp893
(lp894
Vrevid
p895
aI724339463
aa(lp896
Vparentid
p897
aI724337787
aa(lp898
Vminor
p899
aV
aa(lp900
Vuser
p901
aVThe Wordsmith
p902
aa(lp903
Vtimestamp
p904
ag13
((I2016
I6
I8
I16
I15
I29
I2
I160
I-1
t(dtRp905
aa(lp906
Vcomment
p907
aVReverted edits by [[Special:Contribs/105.172.25.122|105.172.25.122]] ([[User talk:105.172.25.122|talk]]) to last version by Brianga
p908
aatRp909
ag2
((lp910
(lp911
Vrevid
p912
aI724337787
aa(lp913
Vparentid
p914
aI717439905
aa(lp915
Vuser
p916
aV105.172.25.122
p917
aa(lp918
Vanon
p919
aV
aa(lp920
Vtimestamp
p921
ag13
((I2016
I6
I8
I16
I3
I2
I2
I160
I-1
t(dtRp922
aa(lp923
Vcomment
p924
aV/* Alternatives to deletion */
p925
aatRp926
ag2
((lp927
(lp928
Vrevid
p929
aI717439905
aa(lp930
Vparentid
p931
aI717437201
aa(lp932
Vminor
p933
aV
aa(lp934
Vuser
p935
aVBrianga
p936
aa(lp937
Vtimestamp
p938
ag13
((I2016
I4
I27
I18
I29
I22
I2
I118
I-1
t(dtRp939
aa(lp940
Vcomment
p941
aVReverted 1 edit by [[Special:Contributions/37.238.164.40|37.238.164.40]] ([[User talk:37.238.164.40|talk]]) to last revision by Fences and windows. ([[WP:TW|TW]])
p942
aatRp943
ag2
((lp944
(lp945
Vrevid
p946
aI717437201
aa(lp947
Vparentid
p948
aI690841647
aa(lp949
Vuser
p950
aV37.238.164.40
p951
aa(lp952
Vanon
p953
aV
aa(lp954
Vtimestamp
p955
ag13
((I2016
I4
I27
I18
I9
I26
I2
I118
I-1
t(dtRp956
aa(lp957
Vcomment
p958
aV/* Don't rush to create articles */
p959
aatRp960
ag2
((lp961
(lp962
Vrevid
p963
aI690841647
aa(lp964
Vparentid
p965
aI689029064
aa(lp966
Vuser
p967
aVFences and windows
p968
aa(lp969
Vtimestamp
p970
ag13
((I2015
I11
I16
I0
I56
I18
I0
I320
I-1
t(dtRp971
aa(lp972
Vcomment
p973
aV/* See also */ Wikipedia:Reactions to... articles
p974
aatRp975
ag2
((lp976
(lp977
Vrevid
p978
aI689029064
aa(lp979
Vparentid
p980
aI685839568
aa(lp981
Vuser
p982
aVWbm1058
p983
aa(lp984
Vtimestamp
p985
ag13
((I2015
I11
I4
I14
I26
I21
I2
I308
I-1
t(dtRp986
aa(lp987
Vcomment
p988
aV/* Criminal acts */ add another shortcut
p989
aatRp990
ag2
((lp991
(lp992
Vrevid
p993
aI685839568
aa(lp994
Vparentid
p995
aI685839115
aa(lp996
Vminor
p997
aV
aa(lp998
Vuser
p999
aVJohnuniq
p1000
aa(lp1001
Vtimestamp
p1002
ag13
((I2015
I10
I15
I9
I0
I11
I3
I288
I-1
t(dtRp1003
aa(lp1004
Vcomment
p1005
aVReverted edits by [[Special:Contribs/Svsharma04|Svsharma04]] ([[User talk:Svsharma04|talk]]) to last version by Sm8900
p1006
aatRp1007
ag2
((lp1008
(lp1009
Vrevid
p1010
aI685839115
aa(lp1011
Vparentid
p1012
aI685395580
aa(lp1013
Vminor
p1014
aV
aa(lp1015
Vuser
p1016
aVSvsharma04
p1017
aa(lp1018
Vtimestamp
p1019
ag13
((I2015
I10
I15
I8
I52
I54
I3
I288
I-1
t(dtRp1020
aa(lp1021
Vcomment
p1022
aVnAvRaTrI SpEcIaL 919988310846 BLACK MAGIC SPECIALIST baba ji indianAvRaTrI SpEcIaL 919988310846 BLACK MAGIC SPECIALIST baba ji indianAvRaTrI SpEcIaL 919988310846 BLACK MAGIC SPECIALIST baba ji indianAvRaTrI SpEcIaL 919988310846 BLACK MAGIC SPECIALIST baba
p1023
aatRp1024
ag2
((lp1025
(lp1026
Vrevid
p1027
aI685395580
aa(lp1028
Vparentid
p1029
aI685395545
aa(lp1030
Vuser
p1031
aVSm8900
p1032
aa(lp1033
Vtimestamp
p1034
ag13
((I2015
I10
I12
I16
I36
I11
I0
I285
I-1
t(dtRp1035
aa(lp1036
Vcomment
p1037
aV/* Inclusion criteria */
p1038
aatRp1039
ag2
((lp1040
(lp1041
Vrevid
p1042
aI685395545
aa(lp1043
Vparentid
p1044
aI685395518
aa(lp1045
Vuser
p1046
aVSm8900
p1047
aa(lp1048
Vtimestamp
p1049
ag13
((I2015
I10
I12
I16
I35
I55
I0
I285
I-1
t(dtRp1050
aa(lp1051
Vcomment
p1052
aV/* Inclusion criteria */
p1053
aatRp1054
ag2
((lp1055
(lp1056
Vrevid
p1057
aI685395518
aa(lp1058
Vparentid
p1059
aI675438941
aa(lp1060
Vuser
p1061
aVSm8900
p1062
aa(lp1063
Vtimestamp
p1064
ag13
((I2015
I10
I12
I16
I35
I45
I0
I285
I-1
t(dtRp1065
aa(lp1066
Vcomment
p1067
aV/* Inclusion criteria */
p1068
aatRp1069
ag2
((lp1070
(lp1071
Vrevid
p1072
aI675438941
aa(lp1073
Vparentid
p1074
aI675438871
aa(lp1075
Vuser
p1076
aVStudentaccountantghost4
p1077
aa(lp1078
Vtimestamp
p1079
ag13
((I2015
I8
I10
I16
I7
I12
I0
I222
I-1
t(dtRp1080
aa(lp1081
Vcomment
p1082
aVUndid revision 675438871 by [[Special:Contributions/59.88.168.139|59.88.168.139]] ([[User talk:59.88.168.139|talk]]) rv vandalism
p1083
aatRp1084
ag2
((lp1085
(lp1086
Vrevid
p1087
aI675438871
aa(lp1088
Vparentid
p1089
aI675093128
aa(lp1090
Vuser
p1091
aV59.88.168.139
p1092
aa(lp1093
Vanon
p1094
aV
aa(lp1095
Vtimestamp
p1096
ag13
((I2015
I8
I10
I16
I6
I34
I0
I222
I-1
t(dtRp1097
aa(lp1098
Vcomment
p1099
aV/* {{anchor|Persistence of coverage}}Duration of coverage */
p1100
aatRp1101
ag2
((lp1102
(lp1103
Vrevid
p1104
aI675093128
aa(lp1105
Vparentid
p1106
aI671160667
aa(lp1107
Vuser
p1108
aVSammy1339
p1109
aa(lp1110
Vtimestamp
p1111
ag13
((I2015
I8
I8
I5
I39
I35
I5
I220
I-1
t(dtRp1112
aa(lp1113
Vcomment
p1114
aV/* Routine coverage */  removed recent addition - please get consensus for this
p1115
aatRp1116
ag2
((lp1117
(lp1118
Vrevid
p1119
aI671160667
aa(lp1120
Vparentid
p1121
aI667257741
aa(lp1122
Vuser
p1123
aVBagumba
p1124
aa(lp1125
Vtimestamp
p1126
ag13
((I2015
I7
I12
I21
I31
I34
I6
I193
I-1
t(dtRp1127
aa(lp1128
Vcomment
p1129
aV/* Breaking news */ +hatnote
p1130
aatRp1131
ag2
((lp1132
(lp1133
Vrevid
p1134
aI667257741
aa(lp1135
Vparentid
p1136
aI667143963
aa(lp1137
Vuser
p1138
aVVQuakr
p1139
aa(lp1140
Vtimestamp
p1141
ag13
((I2015
I6
I16
I21
I37
I4
I1
I167
I-1
t(dtRp1142
aa(lp1143
Vcomment
p1144
aVReverted to revision 662932385 by [[Special:Contributions/Bluerasberry|Bluerasberry]] ([[User talk:Bluerasberry|talk]]): [[WP:NOTINHERITED]]. ([[WP:TW|TW]])
p1145
aatRp1146
ag2
((lp1147
(lp1148
Vrevid
p1149
aI667143963
aa(lp1150
Vparentid
p1151
aI662932385
aa(lp1152
Vuser
p1153
aVKendrick7
p1154
aa(lp1155
Vtimestamp
p1156
ag13
((I2015
I6
I16
I3
I51
I3
I1
I167
I-1
t(dtRp1157
aa(lp1158
Vcomment
p1159
aV/* Lasting effects */ per talk, since there was no objection
p1160
aatRp1161
ag2
((lp1162
(lp1163
Vrevid
p1164
aI662932385
aa(lp1165
Vparentid
p1166
aI647914945
aa(lp1167
Vuser
p1168
aVBluerasberry
p1169
aa(lp1170
Vtimestamp
p1171
ag13
((I2015
I5
I18
I13
I18
I34
I0
I138
I-1
t(dtRp1172
aa(lp1173
Vcomment
p1174
aV/* Routine coverage */ add link to precedent...
p1175
aatRp1176
ag2
((lp1177
(lp1178
Vrevid
p1179
aI647914945
aa(lp1180
Vparentid
p1181
aI640104392
aa(lp1182
Vminor
p1183
aV
aa(lp1184
Vuser
p1185
aVBagumba
p1186
aa(lp1187
Vtimestamp
p1188
ag13
((I2015
I2
I19
I18
I54
I18
I3
I50
I-1
t(dtRp1189
aa(lp1190
Vcomment
p1191
aV/* Breaking news */ reduce whitespace
p1192
aatRp1193
ag2
((lp1194
(lp1195
Vrevid
p1196
aI640104392
aa(lp1197
Vparentid
p1198
aI639366969
aa(lp1199
Vuser
p1200
aVMasem
p1201
aa(lp1202
Vtimestamp
p1203
ag13
((I2014
I12
I29
I15
I53
I5
I0
I363
I-1
t(dtRp1204
aa(lp1205
Vcomment
p1206
aV/* Depth of coverage */ better wikilink for this part
p1207
aatRp1208
ag2
((lp1209
(lp1210
Vrevid
p1211
aI639366969
aa(lp1212
Vparentid
p1213
aI638821639
aa(lp1214
Vminor
p1215
aV
aa(lp1216
Vuser
p1217
aVSporkBot
p1218
aa(lp1219
Vtimestamp
p1220
ag13
((I2014
I12
I23
I18
I10
I39
I1
I357
I-1
t(dtRp1221
aa(lp1222
Vcomment
p1223
aVRepair [[:Category:Pages using duplicate arguments in template calls|duplicate template args]]
p1224
aatRp1225
ag2
((lp1226
(lp1227
Vrevid
p1228
aI638821639
aa(lp1229
Vparentid
p1230
aI634495542
aa(lp1231
Vuser
p1232
aVBagumba
p1233
aa(lp1234
Vtimestamp
p1235
ag13
((I2014
I12
I19
I20
I37
I14
I4
I353
I-1
t(dtRp1236
aa(lp1237
Vcomment
p1238
aV/* Breaking news */ +further info
p1239
aatRp1240
ag2
((lp1241
(lp1242
Vrevid
p1243
aI634495542
aa(lp1244
Vparentid
p1245
aI625668555
aa(lp1246
Vminor
p1247
aV
aa(lp1248
Vuser
p1249
aVYiFeiBot
p1250
aa(lp1251
Vtimestamp
p1252
ag13
((I2014
I11
I19
I6
I21
I5
I2
I323
I-1
t(dtRp1253
aa(lp1254
Vcomment
p1255
aVBot: Migrating interwiki links, now provided by [[d:|Wikidata]] on [[d:q7236489]]
p1256
aatRp1257
ag2
((lp1258
(lp1259
Vrevid
p1260
aI625668555
aa(lp1261
Vparentid
p1262
aI623290923
aa(lp1263
Vminor
p1264
aV
aa(lp1265
Vuser
p1266
aVJonesey95
p1267
aa(lp1268
Vtimestamp
p1269
ag13
((I2014
I9
I15
I14
I34
I37
I0
I258
I-1
t(dtRp1270
aa(lp1271
Vcomment
p1272
aVFixing [[Category:Pages containing cite templates with deprecated parameters|deprecated month parameter]] using [[WP:AutoEd|AutoEd]]
p1273
aatRp1274
ag2
((lp1275
(lp1276
Vrevid
p1277
aI623290923
aa(lp1278
Vparentid
p1279
aI623290832
aa(lp1280
Vuser
p1281
aVFrosty
p1282
aa(lp1283
Vtimestamp
p1284
ag13
((I2014
I8
I29
I9
I52
I55
I4
I241
I-1
t(dtRp1285
aa(lp1286
Vcomment
p1287
aVReverted edits by [[Special:Contributions/194.22.5.12|194.22.5.12]] ([[User talk:194.22.5.12|talk]]): [[WP:SANDBOX|editing tests]] ([[WP:HG|HG]])
p1288
aatRp1289
ag2
((lp1290
(lp1291
Vrevid
p1292
aI623290832
aa(lp1293
Vparentid
p1294
aI604233942
aa(lp1295
Vuser
p1296
aV194.22.5.12
p1297
aa(lp1298
Vanon
p1299
aV
aa(lp1300
Vtimestamp
p1301
ag13
((I2014
I8
I29
I9
I51
I37
I4
I241
I-1
t(dtRp1302
aa(lp1303
Vcomment
p1304
aV/* Background */
p1305
aatRp1306
ag2
((lp1307
(lp1308
Vrevid
p1309
aI604233942
aa(lp1310
Vparentid
p1311
aI602520123
aa(lp1312
Vuser
p1313
aVUnscintillating
p1314
aa(lp1315
Vtimestamp
p1316
ag13
((I2014
I4
I15
I0
I41
I16
I1
I105
I-1
t(dtRp1317
aa(lp1318
Vcomment
p1319
aV/* Don't rush to delete articles */ update to the AI
p1320
aatRp1321
ag2
((lp1322
(lp1323
Vrevid
p1324
aI602520123
aa(lp1325
Vparentid
p1326
aI602257322
aa(lp1327
Vuser
p1328
aVSpirit of Eagle
p1329
aa(lp1330
Vtimestamp
p1331
ag13
((I2014
I4
I3
I3
I39
I59
I3
I93
I-1
t(dtRp1332
aa(lp1333
Vcomment
p1334
aV
aatRp1335
ag2
((lp1336
(lp1337
Vrevid
p1338
aI602257322
aa(lp1339
Vparentid
p1340
aI594426737
aa(lp1341
Vuser
p1342
aV.js
p1343
aa(lp1344
Vtimestamp
p1345
ag13
((I2014
I4
I1
I12
I31
I13
I1
I91
I-1
t(dtRp1346
aa(lp1347
Vcomment
p1348
aVWP events
p1349
aatRp1350
ag2
((lp1351
(lp1352
Vrevid
p1353
aI594426737
aa(lp1354
Vparentid
p1355
aI591503063
aa(lp1356
Vuser
p1357
aVMatjamoe
p1358
aa(lp1359
Vtimestamp
p1360
ag13
((I2014
I2
I7
I21
I47
I0
I4
I38
I-1
t(dtRp1361
aa(lp1362
Vcomment
p1363
aVNo, WP:NE does not redirect here. It redirects to the Northern Emirates WikiProject.
p1364
aatRp1365
ag2
((lp1366
(lp1367
Vrevid
p1368
aI591503063
aa(lp1369
Vparentid
p1370
aI587317775
aa(lp1371
Vuser
p1372
aVMz7
p1373
aa(lp1374
Vtimestamp
p1375
ag13
((I2014
I1
I20
I2
I31
I16
I0
I20
I-1
t(dtRp1376
aa(lp1377
Vcomment
p1378
aVthis definition of notability is confusing; replacing with the one at [[WP:N]]
p1379
aatRp1380
ag2
((lp1381
(lp1382
Vrevid
p1383
aI587317775
aa(lp1384
Vparentid
p1385
aI587317741
aa(lp1386
Vminor
p1387
aV
aa(lp1388
Vuser
p1389
aVDavidwr
p1390
aa(lp1391
Vtimestamp
p1392
ag13
((I2013
I12
I23
I2
I51
I57
I0
I357
I-1
t(dtRp1393
aa(lp1394
Vcomment
p1395
aV/* Depth of coverage */ DEPTH -> WP:DEPTH
p1396
aatRp1397
ag2
((lp1398
(lp1399
Vrevid
p1400
aI587317741
aa(lp1401
Vparentid
p1402
aI582112075
aa(lp1403
Vuser
p1404
aVDavidwr
p1405
aa(lp1406
Vtimestamp
p1407
ag13
((I2013
I12
I23
I2
I51
I33
I0
I357
I-1
t(dtRp1408
aa(lp1409
Vcomment
p1410
aV/* Depth of coverage */ + newly created shortcut [[WP:DEPTH]]
p1411
aatRp1412
ag2
((lp1413
(lp1414
Vrevid
p1415
aI582112075
aa(lp1416
Vparentid
p1417
aI581868948
aa(lp1418
Vuser
p1419
aVEpicgenius
p1420
aa(lp1421
Vtimestamp
p1422
ag13
((I2013
I11
I17
I22
I24
I51
I6
I321
I-1
t(dtRp1423
aa(lp1424
Vcomment
p1425
aV
aatRp1426
ag2
((lp1427
(lp1428
Vrevid
p1429
aI581868948
aa(lp1430
Vparentid
p1431
aI581868911
aa(lp1432
Vminor
p1433
aV
aa(lp1434
Vuser
p1435
aVQuant18
p1436
aa(lp1437
Vtimestamp
p1438
ag13
((I2013
I11
I16
I5
I20
I45
I5
I320
I-1
t(dtRp1439
aa(lp1440
Vcomment
p1441
aV/* Routine coverage */ fix citation error (specify only one of "first"/"last" or "author")
p1442
aatRp1443
ag2
((lp1444
(lp1445
Vrevid
p1446
aI581868911
aa(lp1447
Vparentid
p1448
aI568545638
aa(lp1449
Vminor
p1450
aV
aa(lp1451
Vuser
p1452
aVQuant18
p1453
aa(lp1454
Vtimestamp
p1455
ag13
((I2013
I11
I16
I5
I20
I14
I5
I320
I-1
t(dtRp1456
aa(lp1457
Vcomment
p1458
aV/* Depth of coverage */ fix citation error (specify only one of "first"/"last" or "author")
p1459
aatRp1460
ag2
((lp1461
(lp1462
Vrevid
p1463
aI568545638
aa(lp1464
Vparentid
p1465
aI567819779
aa(lp1466
Vuser
p1467
aVRenamedUser jaskldjslak901
p1468
aa(lp1469
Vtimestamp
p1470
ag13
((I2013
I8
I14
I19
I8
I41
I2
I226
I-1
t(dtRp1471
aa(lp1472
Vcomment
p1473
aV/* Routine coverage */ - remove not routine link personal essay, should be discussed in talk before adding
p1474
aatRp1475
ag2
((lp1476
(lp1477
Vrevid
p1478
aI567819779
aa(lp1479
Vparentid
p1480
aI567416240
aa(lp1481
Vuser
p1482
aVPaulmcdonald
p1483
aa(lp1484
Vtimestamp
p1485
ag13
((I2013
I8
I9
I13
I58
I16
I4
I221
I-1
t(dtRp1486
aa(lp1487
Vcomment
p1488
aV/* Routine coverage */
p1489
aatRp1490
ag2
((lp1491
(lp1492
Vrevid
p1493
aI567416240
aa(lp1494
Vparentid
p1495
aI567408183
aa(lp1496
Vuser
p1497
aVNorthamerica1000
p1498
aa(lp1499
Vtimestamp
p1500
ag13
((I2013
I8
I6
I16
I11
I6
I1
I218
I-1
t(dtRp1501
aa(lp1502
Vcomment
p1503
aV/* Inclusion criteria */ + {{shortcut|WP:EVENTCRIT}}
p1504
aatRp1505
ag2
((lp1506
(lp1507
Vrevid
p1508
aI567408183
aa(lp1509
Vparentid
p1510
aI560323189
aa(lp1511
Vuser
p1512
aVDiego Moya
p1513
aa(lp1514
Vtimestamp
p1515
ag13
((I2013
I8
I6
I15
I2
I16
I1
I218
I-1
t(dtRp1516
aa(lp1517
Vcomment
p1518
aV/* Don't rush to delete articles */  Discussion archived
p1519
aatRp1520
ag2
((lp1521
(lp1522
Vrevid
p1523
aI560323189
aa(lp1524
Vparentid
p1525
aI560322746
aa(lp1526
Vuser
p1527
aVMasem
p1528
aa(lp1529
Vtimestamp
p1530
ag13
((I2013
I6
I17
I17
I20
I3
I0
I168
I-1
t(dtRp1531
aa(lp1532
Vcomment
p1533
aVReverted [[WP:AGF|good faith]] edits by [[Special:Contributions/Africamusicconference|Africamusicconference]] ([[User talk:Africamusicconference|talk]]): Rm deletion. ([[WP:TW|TW]])
p1534
aatRp1535
ag2
((lp1536
(lp1537
Vrevid
p1538
aI560322746
aa(lp1539
Vparentid
p1540
aI560322705
aa(lp1541
Vuser
p1542
aVAfricamusicconference
p1543
aa(lp1544
Vtimestamp
p1545
ag13
((I2013
I6
I17
I17
I17
I2
I0
I168
I-1
t(dtRp1546
aa(lp1547
Vcomment
p1548
aV
aatRp1549
ag2
((lp1550
(lp1551
Vrevid
p1552
aI560322705
aa(lp1553
Vparentid
p1554
aI560322662
aa(lp1555
Vuser
p1556
aVMasem
p1557
aa(lp1558
Vtimestamp
p1559
ag13
((I2013
I6
I17
I17
I16
I45
I0
I168
I-1
t(dtRp1560
aa(lp1561
Vcomment
p1562
aVReverted [[WP:AGF|good faith]] edits by [[Special:Contributions/Africamusicconference|Africamusicconference]] ([[User talk:Africamusicconference|talk]]): This is not the place to add article content. ([[WP:TW|TW]])
p1563
aatRp1564
ag2
((lp1565
(lp1566
Vrevid
p1567
aI560322662
aa(lp1568
Vparentid
p1569
aI560322421
aa(lp1570
Vuser
p1571
aVAfricamusicconference
p1572
aa(lp1573
Vtimestamp
p1574
ag13
((I2013
I6
I17
I17
I16
I22
I0
I168
I-1
t(dtRp1575
aa(lp1576
Vcomment
p1577
aV/* Background */
p1578
aatRp1579
ag2
((lp1580
(lp1581
Vrevid
p1582
aI560322421
aa(lp1583
Vparentid
p1584
aI560322162
aa(lp1585
Vuser
p1586
aVAfricamusicconference
p1587
aa(lp1588
Vtimestamp
p1589
ag13
((I2013
I6
I17
I17
I14
I26
I0
I168
I-1
t(dtRp1590
aa(lp1591
Vcomment
p1592
aV/* Inclusion criteria */
p1593
aatRp1594
ag2
((lp1595
(lp1596
Vrevid
p1597
aI560322162
aa(lp1598
Vparentid
p1599
aI560321168
aa(lp1600
Vuser
p1601
aVAfricamusicconference
p1602
aa(lp1603
Vtimestamp
p1604
ag13
((I2013
I6
I17
I17
I12
I30
I0
I168
I-1
t(dtRp1605
aa(lp1606
Vcomment
p1607
aV/* Background */
p1608
aatRp1609
ag2
((lp1610
(lp1611
Vrevid
p1612
aI560321168
aa(lp1613
Vparentid
p1614
aI560320303
aa(lp1615
Vuser
p1616
aVMasem
p1617
aa(lp1618
Vtimestamp
p1619
ag13
((I2013
I6
I17
I17
I5
I29
I0
I168
I-1
t(dtRp1620
aa(lp1621
Vcomment
p1622
aVReverted [[WP:AGF|good faith]] edits by [[Special:Contributions/Africamusicconference|Africamusicconference]] ([[User talk:Africamusicconference|talk]]): Rm article contnet that should not be here. ([[WP:TW|TW]])
p1623
aatRp1624
ag2
((lp1625
(lp1626
Vrevid
p1627
aI560320303
aa(lp1628
Vparentid
p1629
aI557791149
aa(lp1630
Vuser
p1631
aVAfricamusicconference
p1632
aa(lp1633
Vtimestamp
p1634
ag13
((I2013
I6
I17
I16
I59
I10
I0
I168
I-1
t(dtRp1635
aa(lp1636
Vcomment
p1637
aV/* Background */
p1638
aatRp1639
ag2
((lp1640
(lp1641
Vrevid
p1642
aI557791149
aa(lp1643
Vparentid
p1644
aI555588744
aa(lp1645
Vminor
p1646
aV
aa(lp1647
Vuser
p1648
aVAddbot
p1649
aa(lp1650
Vtimestamp
p1651
ag13
((I2013
I6
I1
I5
I57
I56
I5
I152
I-1
t(dtRp1652
aa(lp1653
Vcomment
p1654
aV[[User:Addbot|Bot:]] Migrating 1 interwiki links, now provided by [[Wikipedia:Wikidata|Wikidata]] on [[d:q7236489]]
p1655
aatRp1656
ag2
((lp1657
(lp1658
Vrevid
p1659
aI555588744
aa(lp1660
Vparentid
p1661
aI555082760
aa(lp1662
Vminor
p1663
aV
aa(lp1664
Vuser
p1665
aVAddbot
p1666
aa(lp1667
Vtimestamp
p1668
ag13
((I2013
I5
I18
I0
I42
I27
I5
I138
I-1
t(dtRp1669
aa(lp1670
Vcomment
p1671
aV[[User:Addbot|Bot:]] Migrating 2 interwiki links, now provided by [[Wikipedia:Wikidata|Wikidata]] on [[d:q7236489]]
p1672
aatRp1673
ag2
((lp1674
(lp1675
Vrevid
p1676
aI555082760
aa(lp1677
Vparentid
p1678
aI547692056
aa(lp1679
Vuser
p1680
aVHellno2
p1681
aa(lp1682
Vtimestamp
p1683
ag13
((I2013
I5
I14
I17
I21
I20
I1
I134
I-1
t(dtRp1684
aa(lp1685
Vcomment
p1686
aV/* See also */ [[Wikipedia:"Murder of" articles]]
p1687
aatRp1688
ag2
((lp1689
(lp1690
Vrevid
p1691
aI547692056
aa(lp1692
Vparentid
p1693
aI547688548
aa(lp1694
Vuser
p1695
aVPaine Ellsworth
p1696
aa(lp1697
Vtimestamp
p1698
ag13
((I2013
I3
I29
I21
I31
I51
I4
I88
I-1
t(dtRp1699
aa(lp1700
Vcomment
p1701
aV/* Geographical scope */ anchor old section name to fix broken links
p1702
aatRp1703
ag2
((lp1704
(lp1705
Vrevid
p1706
aI547688548
aa(lp1707
Vparentid
p1708
aI547687550
aa(lp1709
Vminor
p1710
aV
aa(lp1711
Vuser
p1712
aVPaine Ellsworth
p1713
aa(lp1714
Vtimestamp
p1715
ag13
((I2013
I3
I29
I21
I10
I15
I4
I88
I-1
t(dtRp1716
aa(lp1717
Vcomment
p1718
aV/* {{anchor|Persistence of coverage}}Duration of coverage */ clarified
p1719
aatRp1720
ag2
((lp1721
(lp1722
Vrevid
p1723
aI547687550
aa(lp1724
Vparentid
p1725
aI547687305
aa(lp1726
Vminor
p1727
aV
aa(lp1728
Vuser
p1729
aVPaine Ellsworth
p1730
aa(lp1731
Vtimestamp
p1732
ag13
((I2013
I3
I29
I21
I4
I2
I4
I88
I-1
t(dtRp1733
aa(lp1734
Vcomment
p1735
aV/* {{anchor|Persistence of coverage}}Duration of coverage */ rm vague comment
p1736
aatRp1737
ag2
((lp1738
(lp1739
Vrevid
p1740
aI547687305
aa(lp1741
Vparentid
p1742
aI547677324
aa(lp1743
Vminor
p1744
aV
aa(lp1745
Vuser
p1746
aVPaine Ellsworth
p1747
aa(lp1748
Vtimestamp
p1749
ag13
((I2013
I3
I29
I21
I2
I46
I4
I88
I-1
t(dtRp1750
aa(lp1751
Vcomment
p1752
aV/* Duration of coverage */ create anchor to fix broken links
p1753
aatRp1754
ag2
((lp1755
(lp1756
Vrevid
p1757
aI547677324
aa(lp1758
Vparentid
p1759
aI535987674
aa(lp1760
Vuser
p1761
aVPaine Ellsworth
p1762
aa(lp1763
Vtimestamp
p1764
ag13
((I2013
I3
I29
I20
I0
I52
I4
I88
I-1
t(dtRp1765
aa(lp1766
Vcomment
p1767
aV/* Don't rush to delete articles */ anchor to fix broken links
p1768
aatRp1769
ag2
((lp1770
(lp1771
Vrevid
p1772
aI535987674
aa(lp1773
Vparentid
p1774
aI535987611
aa(lp1775
Vminor
p1776
aV
aa(lp1777
Vuser
p1778
aVMkdw
p1779
aa(lp1780
Vtimestamp
p1781
ag13
((I2013
I2
I1
I7
I3
I1
I4
I32
I-1
t(dtRp1782
aa(lp1783
Vcomment
p1784
aVputting in order
p1785
aatRp1786
ag2
((lp1787
(lp1788
Vrevid
p1789
aI535987611
aa(lp1790
Vparentid
p1791
aI535213871
aa(lp1792
Vuser
p1793
aVMkdw
p1794
aa(lp1795
Vtimestamp
p1796
ag13
((I2013
I2
I1
I7
I2
I20
I4
I32
I-1
t(dtRp1797
aa(lp1798
Vcomment
p1799
aVlasting
p1800
aatRp1801
ag2
((lp1802
(lp1803
Vrevid
p1804
aI535213871
aa(lp1805
Vparentid
p1806
aI535062611
aa(lp1807
Vminor
p1808
aV
aa(lp1809
Vuser
p1810
aVWdchk
p1811
aa(lp1812
Vtimestamp
p1813
ag13
((I2013
I1
I27
I19
I33
I35
I6
I27
I-1
t(dtRp1814
aa(lp1815
Vcomment
p1816
aV/* Inclusion criteria */ hyphens \u2192 [[WP:MDASH|en dash]]
p1817
aatRp1818
ag2
((lp1819
(lp1820
Vrevid
p1821
aI535062611
aa(lp1822
Vparentid
p1823
aI531663070
aa(lp1824
Vuser
p1825
aVOjdvQ9fNJWl
p1826
aa(lp1827
Vtimestamp
p1828
ag13
((I2013
I1
I26
I23
I1
I45
I5
I26
I-1
t(dtRp1829
aa(lp1830
Vcomment
p1831
aV/* See also */ update
p1832
aatRp1833
ag2
((lp1834
(lp1835
Vrevid
p1836
aI531663070
aa(lp1837
Vparentid
p1838
aI530627391
aa(lp1839
Vuser
p1840
aVAzurfrog
p1841
aa(lp1842
Vtimestamp
p1843
ag13
((I2013
I1
I6
I19
I32
I52
I6
I6
I-1
t(dtRp1844
aa(lp1845
Vcomment
p1846
aV/* Notes */ Link to French page.
p1847
aatRp1848
ag2
((lp1849
(lp1850
Vrevid
p1851
aI530627391
aa(lp1852
Vparentid
p1853
aI520851944
aa(lp1854
Vuser
p1855
aVThe Devil's Advocate
p1856
aa(lp1857
Vtimestamp
p1858
ag13
((I2012
I12
I31
I16
I21
I28
I0
I366
I-1
t(dtRp1859
aa(lp1860
Vcomment
p1861
aV/* Geographical scope */  this wording needs to be clearer as WP:INDEPTH and WP:PERSISTENCE take precedence
p1862
aatRp1863
ag2
((lp1864
(lp1865
Vrevid
p1866
aI520851944
aa(lp1867
Vparentid
p1868
aI509169927
aa(lp1869
Vuser
p1870
aVKusunose
p1871
aa(lp1872
Vtimestamp
p1873
ag13
((I2012
I11
I1
I4
I33
I7
I3
I306
I-1
t(dtRp1874
aa(lp1875
Vcomment
p1876
aV/* See also */ added [[Wikipedia:Naming conventions (events)]]
p1877
aatRp1878
ag2
((lp1879
(lp1880
Vrevid
p1881
aI509169927
aa(lp1882
Vparentid
p1883
aI509169834
aa(lp1884
Vuser
p1885
aVLocation
p1886
aa(lp1887
Vtimestamp
p1888
ag13
((I2012
I8
I26
I0
I38
I15
I6
I239
I-1
t(dtRp1889
aa(lp1890
Vcomment
p1891
aVsection title
p1892
aatRp1893
ag2
((lp1894
(lp1895
Vrevid
p1896
aI509169834
aa(lp1897
Vparentid
p1898
aI509031921
aa(lp1899
Vuser
p1900
aVLocation
p1901
aa(lp1902
Vtimestamp
p1903
ag13
((I2012
I8
I26
I0
I37
I35
I6
I239
I-1
t(dtRp1904
aa(lp1905
Vcomment
p1906
aV/* Background */  rewording per talk page
p1907
aatRp1908
ag2
((lp1909
(lp1910
Vrevid
p1911
aI509031921
aa(lp1912
Vparentid
p1913
aI508690456
aa(lp1914
Vuser
p1915
aVLocation
p1916
aa(lp1917
Vtimestamp
p1918
ag13
((I2012
I8
I25
I3
I58
I2
I5
I238
I-1
t(dtRp1919
aa(lp1920
Vcomment
p1921
aVFor consistency, I have reworded the lede to mirror that of [[Wikipedia:Notability (people)]]. Please revert and discuss if there are objections.
p1922
aatRp1923
ag2
((lp1924
(lp1925
Vrevid
p1926
aI508690456
aa(lp1927
Vparentid
p1928
aI508665632
aa(lp1929
Vuser
p1930
aVLocation
p1931
aa(lp1932
Vtimestamp
p1933
ag13
((I2012
I8
I22
I22
I16
I25
I2
I235
I-1
t(dtRp1934
aa(lp1935
Vcomment
p1936
aV/* Breaking news */  Section titles consistent with [[Wikipedia:There is no deadline]]
p1937
aatRp1938
ag2
((lp1939
(lp1940
Vrevid
p1941
aI508665632
aa(lp1942
Vparentid
p1943
aI504151156
aa(lp1944
Vuser
p1945
aVTheRedPenOfDoom
p1946
aa(lp1947
Vtimestamp
p1948
ag13
((I2012
I8
I22
I19
I39
I7
I2
I235
I-1
t(dtRp1949
aa(lp1950
Vcomment
p1951
aV/* Don't nominate too rapidly for deletion */
p1952
aatRp1953
ag2
((lp1954
(lp1955
Vrevid
p1956
aI504151156
aa(lp1957
Vparentid
p1958
aI500393919
aa(lp1959
Vuser
p1960
aVLocation
p1961
aa(lp1962
Vtimestamp
p1963
ag13
((I2012
I7
I25
I18
I48
I3
I2
I207
I-1
t(dtRp1964
aa(lp1965
Vcomment
p1966
aV/* Lasting effects */  rv of section change per talk page
p1967
aatRp1968
ag2
((lp1969
(lp1970
Vrevid
p1971
aI500393919
aa(lp1972
Vparentid
p1973
aI497364130
aa(lp1974
Vuser
p1975
aVThaddeusB
p1976
aa(lp1977
Vtimestamp
p1978
ag13
((I2012
I7
I2
I22
I22
I42
I0
I184
I-1
t(dtRp1979
aa(lp1980
Vcomment
p1981
aV/* Inclusion criteria */ discussion ended and was archived ([[Wikipedia_talk:Notability/Archive_51#.22Enduring.22_notability]]) without any real conclusion
p1982
aatRp1983
ag2
((lp1984
(lp1985
Vrevid
p1986
aI497364130
aa(lp1987
Vparentid
p1988
aI493134701
aa(lp1989
Vuser
p1990
aVGeorge Ho
p1991
aa(lp1992
Vtimestamp
p1993
ag13
((I2012
I6
I13
I8
I22
I11
I2
I165
I-1
t(dtRp1994
aa(lp1995
Vcomment
p1996
aV/* Inclusion criteria */ meaning of "enduring" under discussion elsewhere
p1997
aatRp1998
ag2
((lp1999
(lp2000
Vrevid
p2001
aI493134701
aa(lp2002
Vparentid
p2003
aI491096183
aa(lp2004
Vuser
p2005
aVDipankan001
p2006
aa(lp2007
Vtimestamp
p2008
ag13
((I2012
I5
I18
I3
I56
I58
I4
I139
I-1
t(dtRp2009
aa(lp2010
Vcomment
p2011
aV
aatRp2012
ag2
((lp2013
(lp2014
Vrevid
p2015
aI491096183
aa(lp2016
Vparentid
p2017
aI491096113
aa(lp2018
Vminor
p2019
aV
aa(lp2020
Vuser
p2021
aVJesanj
p2022
aa(lp2023
Vtimestamp
p2024
ag13
((I2012
I5
I7
I0
I36
I45
I0
I128
I-1
t(dtRp2025
aa(lp2026
Vcomment
p2027
aVReverted 1 edit by [[Special:Contributions/Justin Briante|Justin Briante]] ([[User talk:Justin Briante|talk]]) identified as [[WP:VAND|vandalism]] to last revision by Amiraram. ([[WP:TW|TW]])
p2028
aatRp2029
ag2
((lp2030
(lp2031
Vrevid
p2032
aI491096113
aa(lp2033
Vparentid
p2034
aI490599145
aa(lp2035
Vuser
p2036
aVJustin Briante
p2037
aa(lp2038
Vtimestamp
p2039
ag13
((I2012
I5
I7
I0
I36
I17
I0
I128
I-1
t(dtRp2040
aa(lp2041
Vcomment
p2042
aV
aatRp2043
ag2
((lp2044
(lp2045
Vrevid
p2046
aI490599145
aa(lp2047
Vparentid
p2048
aI489644866
aa(lp2049
Vuser
p2050
aVAmiraram
p2051
aa(lp2052
Vtimestamp
p2053
ag13
((I2012
I5
I4
I7
I58
I3
I4
I125
I-1
t(dtRp2054
aa(lp2055
Vcomment
p2056
aV
aatRp2057
ag2
((lp2058
(lp2059
Vrevid
p2060
aI489644866
aa(lp2061
Vparentid
p2062
aI473024965
aa(lp2063
Vuser
p2064
aVUnscintillating
p2065
aa(lp2066
Vtimestamp
p2067
ag13
((I2012
I4
I28
I16
I19
I51
I5
I119
I-1
t(dtRp2068
aa(lp2069
Vcomment
p2070
aV/* Routine coverage */ update deprecated redirect
p2071
aatRp2072
ag2
((lp2073
(lp2074
Vrevid
p2075
aI473024965
aa(lp2076
Vparentid
p2077
aI471912090
aa(lp2078
Vuser
p2079
aVHellno2
p2080
aa(lp2081
Vtimestamp
p2082
ag13
((I2012
I1
I24
I19
I3
I37
I1
I24
I-1
t(dtRp2083
aa(lp2084
Vcomment
p2085
aV/* Don't nominate too rapidly for deletion */ Add shortcut
p2086
aatRp2087
ag2
((lp2088
(lp2089
Vrevid
p2090
aI471912090
aa(lp2091
Vparentid
p2092
aI471890101
aa(lp2093
Vuser
p2094
aVCybercobra
p2095
aa(lp2096
Vtimestamp
p2097
ag13
((I2012
I1
I17
I19
I23
I42
I1
I17
I-1
t(dtRp2098
aa(lp2099
Vcomment
p2100
aV/* Don't nominate too rapidly for deletion */ prev edit lost the BLP subclause without explanation
p2101
aatRp2102
ag2
((lp2103
(lp2104
Vrevid
p2105
aI471890101
aa(lp2106
Vparentid
p2107
aI468249456
aa(lp2108
Vuser
p2109
aVLambiam
p2110
aa(lp2111
Vtimestamp
p2112
ag13
((I2012
I1
I17
I17
I4
I10
I1
I17
I-1
t(dtRp2113
aa(lp2114
Vcomment
p2115
aV/* Breaking news */ rarely consensus to delete
p2116
aatRp2117
ag2
((lp2118
(lp2119
Vrevid
p2120
aI468249456
aa(lp2121
Vparentid
p2122
aI467737719
aa(lp2123
Vuser
p2124
aVSilkTork
p2125
aa(lp2126
Vtimestamp
p2127
ag13
((I2011
I12
I29
I11
I0
I17
I3
I363
I-1
t(dtRp2128
aa(lp2129
Vcomment
p2130
aV/* Notes */ {{reflist}}
p2131
aatRp2132
ag2
((lp2133
(lp2134
Vrevid
p2135
aI467737719
aa(lp2136
Vparentid
p2137
aI455843107
aa(lp2138
Vminor
p2139
aV
aa(lp2140
Vuser
p2141
aVJpatokal
p2142
aa(lp2143
Vtimestamp
p2144
ag13
((I2011
I12
I26
I10
I48
I21
I0
I360
I-1
t(dtRp2145
aa(lp2146
Vcomment
p2147
aV/* Lasting effects */ sp; should be lowercase
p2148
aatRp2149
ag2
((lp2150
(lp2151
Vrevid
p2152
aI455843107
aa(lp2153
Vparentid
p2154
aI455824569
aa(lp2155
Vminor
p2156
aV
aa(lp2157
Vuser
p2158
aVJenks24
p2159
aa(lp2160
Vtimestamp
p2161
ag13
((I2011
I10
I16
I13
I37
I39
I6
I289
I-1
t(dtRp2162
aa(lp2163
Vcomment
p2164
aV/* Routine coverage */ spacing
p2165
aatRp2166
ag2
((lp2167
(lp2168
Vrevid
p2169
aI455824569
aa(lp2170
Vparentid
p2171
aI446684437
aa(lp2172
Vuser
p2173
aVThe Bushranger
p2174
aa(lp2175
Vtimestamp
p2176
ag13
((I2011
I10
I16
I10
I27
I30
I6
I289
I-1
t(dtRp2177
aa(lp2178
Vcomment
p2179
aV/* Routine coverage */ extra sc
p2180
aatRp2181
ag2
((lp2182
(lp2183
Vrevid
p2184
aI446684437
aa(lp2185
Vparentid
p2186
aI444380482
aa(lp2187
Vminor
p2188
aV
aa(lp2189
Vuser
p2190
aVJesanj
p2191
aa(lp2192
Vtimestamp
p2193
ag13
((I2011
I8
I25
I17
I21
I12
I3
I237
I-1
t(dtRp2194
aa(lp2195
Vcomment
p2196
aV/* Criminal acts */ comma before citation
p2197
aatRp2198
ag2
((lp2199
(lp2200
Vrevid
p2201
aI444380482
aa(lp2202
Vparentid
p2203
aI444380296
aa(lp2204
Vuser
p2205
aVCerejota
p2206
aa(lp2207
Vtimestamp
p2208
ag13
((I2011
I8
I12
I3
I36
I18
I4
I224
I-1
t(dtRp2209
aa(lp2210
Vcomment
p2211
aVNEVENT
p2212
aatRp2213
ag2
((lp2214
(lp2215
Vrevid
p2216
aI444380296
aa(lp2217
Vparentid
p2218
aI442163472
aa(lp2219
Vuser
p2220
aVCerejota
p2221
aa(lp2222
Vtimestamp
p2223
ag13
((I2011
I8
I12
I3
I34
I30
I4
I224
I-1
t(dtRp2224
aa(lp2225
Vcomment
p2226
aVWP:NEVENTS
p2227
aatRp2228
ag2
((lp2229
(lp2230
Vrevid
p2231
aI442163472
aa(lp2232
Vparentid
p2233
aI431596494
aa(lp2234
Vuser
p2235
aVThe Other Saluton
p2236
aa(lp2237
Vtimestamp
p2238
ag13
((I2011
I7
I30
I6
I49
I52
I5
I211
I-1
t(dtRp2239
aa(lp2240
Vcomment
p2241
aV
aatRp2242
ag2
((lp2243
(lp2244
Vrevid
p2245
aI431596494
aa(lp2246
Vparentid
p2247
aI418166999
aa(lp2248
Vuser
p2249
aVFences and windows
p2250
aa(lp2251
Vtimestamp
p2252
ag13
((I2011
I5
I30
I4
I27
I10
I0
I150
I-1
t(dtRp2253
aa(lp2254
Vcomment
p2255
aV/* See also */ Another essay
p2256
aatRp2257
ag2
((lp2258
(lp2259
Vrevid
p2260
aI418166999
aa(lp2261
Vparentid
p2262
aI412723495
aa(lp2263
Vuser
p2264
aVUnscintillating
p2265
aa(lp2266
Vtimestamp
p2267
ag13
((I2011
I3
I10
I18
I38
I2
I3
I69
I-1
t(dtRp2268
aa(lp2269
Vcomment
p2270
aV/* See also */ Wikipedia:Deletion policy
p2271
aatRp2272
ag2
((lp2273
(lp2274
Vrevid
p2275
aI412723495
aa(lp2276
Vparentid
p2277
aI412722960
aa(lp2278
Vuser
p2279
aVHodgdon's secret garden
p2280
aa(lp2281
Vtimestamp
p2282
ag13
((I2011
I2
I8
I14
I21
I10
I1
I39
I-1
t(dtRp2283
aa(lp2284
Vcomment
p2285
aV/* Criminal acts */ -->wp
p2286
aatRp2287
ag2
((lp2288
(lp2289
Vrevid
p2290
aI412722960
aa(lp2291
Vparentid
p2292
aI409122217
aa(lp2293
Vuser
p2294
aVHodgdon's secret garden
p2295
aa(lp2296
Vtimestamp
p2297
ag13
((I2011
I2
I8
I14
I17
I25
I1
I39
I-1
t(dtRp2298
aa(lp2299
Vcomment
p2300
aV/* Criminal acts */ update
p2301
aatRp2302
ag2
((lp2303
(lp2304
Vrevid
p2305
aI409122217
aa(lp2306
Vparentid
p2307
aI409121565
aa(lp2308
Vuser
p2309
aVLocation
p2310
aa(lp2311
Vtimestamp
p2312
ag13
((I2011
I1
I21
I7
I0
I19
I4
I21
I-1
t(dtRp2313
aa(lp2314
Vcomment
p2315
aV/* See also */ [[Wikipedia:Notability (railway incidents)]] has been rejected since this was added to the "See also" section.
p2316
aatRp2317
ag2
((lp2318
(lp2319
Vrevid
p2320
aI409121565
aa(lp2321
Vparentid
p2322
aI408512458
aa(lp2323
Vuser
p2324
aVLocation
p2325
aa(lp2326
Vtimestamp
p2327
ag13
((I2011
I1
I21
I6
I51
I50
I4
I21
I-1
t(dtRp2328
aa(lp2329
Vcomment
p2330
aV/* Lasting effects */ While the statement is true, the article referenced technically falls under the guidance of [[WP:BIO]] not [[WP:EVENT]].
p2331
aatRp2332
ag2
((lp2333
(lp2334
Vrevid
p2335
aI408512458
aa(lp2336
Vparentid
p2337
aI408128948
aa(lp2338
Vuser
p2339
aVLocation
p2340
aa(lp2341
Vtimestamp
p2342
ag13
((I2011
I1
I18
I2
I11
I49
I1
I18
I-1
t(dtRp2343
aa(lp2344
Vcomment
p2345
aV/* The coverage */  section missing bullet point
p2346
aatRp2347
ag2
((lp2348
(lp2349
Vrevid
p2350
aI408128948
aa(lp2351
Vparentid
p2352
aI408128709
aa(lp2353
Vuser
p2354
aVLocation
p2355
aa(lp2356
Vtimestamp
p2357
ag13
((I2011
I1
I16
I2
I1
I31
I6
I16
I-1
t(dtRp2358
aa(lp2359
Vcomment
p2360
aV/* People notable for only one event */  [[WP:BLP1E]] and [[WP:BIO1E]] give some reasoning as to when it it appropriate to create an article on a person known for a single event.
p2361
aatRp2362
ag2
((lp2363
(lp2364
Vrevid
p2365
aI408128709
aa(lp2366
Vparentid
p2367
aI408128447
aa(lp2368
Vuser
p2369
aVLocation
p2370
aa(lp2371
Vtimestamp
p2372
ag13
((I2011
I1
I16
I1
I59
I37
I6
I16
I-1
t(dtRp2373
aa(lp2374
Vcomment
p2375
aV/* People notable for only one event */  Struck "and other subjects" as unnecessary.
p2376
aatRp2377
ag2
((lp2378
(lp2379
Vrevid
p2380
aI408128447
aa(lp2381
Vparentid
p2382
aI407192727
aa(lp2383
Vuser
p2384
aVLocation
p2385
aa(lp2386
Vtimestamp
p2387
ag13
((I2011
I1
I16
I1
I57
I30
I6
I16
I-1
t(dtRp2388
aa(lp2389
Vcomment
p2390
aV/* Participants known for one event */ Title changed for consistency; reflects title at [[WP:BIO1E]]
p2391
aatRp2392
ag2
((lp2393
(lp2394
Vrevid
p2395
aI407192727
aa(lp2396
Vparentid
p2397
aI405305914
aa(lp2398
Vminor
p2399
aV
aa(lp2400
Vuser
p2401
aVJayen466
p2402
aa(lp2403
Vtimestamp
p2404
ag13
((I2011
I1
I11
I2
I14
I23
I1
I11
I-1
t(dtRp2405
aa(lp2406
Vcomment
p2407
aV/* Alternatives to deletion */ ce
p2408
aatRp2409
ag2
((lp2410
(lp2411
Vrevid
p2412
aI405305914
aa(lp2413
Vparentid
p2414
aI402442399
aa(lp2415
Vuser
p2416
aV\u4eca\u53e4\u5eb8\u9f8d
p2417
aa(lp2418
Vtimestamp
p2419
ag13
((I2011
I1
I1
I11
I4
I35
I5
I1
I-1
t(dtRp2420
aa(lp2421
Vcomment
p2422
aV[[zh:Wikipedia:\u5173\u6ce8\u5ea6 (\u4e8b\u4ef6)]]
p2423
aatRp2424
ag2
((lp2425
(lp2426
Vrevid
p2427
aI402442399
aa(lp2428
Vparentid
p2429
aI395737479
aa(lp2430
Vminor
p2431
aV
aa(lp2432
Vuser
p2433
aVWhatamIdoing
p2434
aa(lp2435
Vtimestamp
p2436
ag13
((I2010
I12
I15
I1
I46
I0
I2
I349
I-1
t(dtRp2437
aa(lp2438
Vcomment
p2439
aVPunctuation
p2440
aatRp2441
ag2
((lp2442
(lp2443
Vrevid
p2444
aI395737479
aa(lp2445
Vparentid
p2446
aI390597089
aa(lp2447
Vuser
p2448
aVAlzarian16
p2449
aa(lp2450
Vtimestamp
p2451
ag13
((I2010
I11
I9
I13
I25
I11
I1
I313
I-1
t(dtRp2452
aa(lp2453
Vcomment
p2454
aV/* Diversity of sources */ Remove superfluous comma
p2455
aatRp2456
ag2
((lp2457
(lp2458
Vrevid
p2459
aI390597089
aa(lp2460
Vparentid
p2461
aI390596108
aa(lp2462
Vuser
p2463
aVLocation
p2464
aa(lp2465
Vtimestamp
p2466
ag13
((I2010
I10
I13
I23
I29
I0
I2
I286
I-1
t(dtRp2467
aa(lp2468
Vcomment
p2469
aVUndid revision 390596108 by [[Special:Contributions/Natalieacp|Natalieacp]] ([[User talk:Natalieacp|talk]])
p2470
aatRp2471
ag2
((lp2472
(lp2473
Vrevid
p2474
aI390596108
aa(lp2475
Vparentid
p2476
aI389666617
aa(lp2477
Vuser
p2478
aVNatalieacp
p2479
aa(lp2480
Vtimestamp
p2481
ag13
((I2010
I10
I13
I23
I22
I25
I2
I286
I-1
t(dtRp2482
aa(lp2483
Vcomment
p2484
aV/* Background */
p2485
aatRp2486
ag2
((lp2487
(lp2488
Vrevid
p2489
aI389666617
aa(lp2490
Vparentid
p2491
aI389665394
aa(lp2492
Vuser
p2493
aVUlarevalo98
p2494
aa(lp2495
Vtimestamp
p2496
ag13
((I2010
I10
I9
I7
I28
I1
I5
I282
I-1
t(dtRp2497
aa(lp2498
Vcomment
p2499
aVReverted to revision 388786801 by [[Special:Contributions/Fences and windows|Fences and windows]]; unreliable edits. ([[WP:TW|TW]])
p2500
aatRp2501
ag2
((lp2502
(lp2503
Vrevid
p2504
aI389665394
aa(lp2505
Vparentid
p2506
aI389665337
aa(lp2507
Vuser
p2508
aVHans chem
p2509
aa(lp2510
Vtimestamp
p2511
ag13
((I2010
I10
I9
I7
I15
I57
I5
I282
I-1
t(dtRp2512
aa(lp2513
Vcomment
p2514
aV/* Other circumstances */
p2515
aatRp2516
ag2
((lp2517
(lp2518
Vrevid
p2519
aI389665337
aa(lp2520
Vparentid
p2521
aI389665257
aa(lp2522
Vuser
p2523
aVHans chem
p2524
aa(lp2525
Vtimestamp
p2526
ag13
((I2010
I10
I9
I7
I15
I23
I5
I282
I-1
t(dtRp2527
aa(lp2528
Vcomment
p2529
aV/* Inclusion criteria */
p2530
aatRp2531
ag2
((lp2532
(lp2533
Vrevid
p2534
aI389665257
aa(lp2535
Vparentid
p2536
aI388786801
aa(lp2537
Vuser
p2538
aVHans chem
p2539
aa(lp2540
Vtimestamp
p2541
ag13
((I2010
I10
I9
I7
I14
I47
I5
I282
I-1
t(dtRp2542
aa(lp2543
Vcomment
p2544
aV/* Background */
p2545
aatRp2546
ag2
((lp2547
(lp2548
Vrevid
p2549
aI388786801
aa(lp2550
Vparentid
p2551
aI388631590
aa(lp2552
Vuser
p2553
aVFences and windows
p2554
aa(lp2555
Vtimestamp
p2556
ag13
((I2010
I10
I4
I23
I29
I43
I0
I277
I-1
t(dtRp2557
aa(lp2558
Vcomment
p2559
aV/* Background */  Edit as the guideline on criminal acts was merged here
p2560
aatRp2561
ag2
((lp2562
(lp2563
Vrevid
p2564
aI388631590
aa(lp2565
Vparentid
p2566
aI387258905
aa(lp2567
Vminor
p2568
aV
aa(lp2569
Vuser
p2570
aVCybercobra
p2571
aa(lp2572
Vtimestamp
p2573
ag13
((I2010
I10
I4
I7
I24
I19
I0
I277
I-1
t(dtRp2574
aa(lp2575
Vcomment
p2576
aV/* Depth of coverage */ punct
p2577
aatRp2578
ag2
((lp2579
(lp2580
Vrevid
p2581
aI387258905
aa(lp2582
Vparentid
p2583
aI385018975
aa(lp2584
Vuser
p2585
aVGatoclass
p2586
aa(lp2587
Vtimestamp
p2588
ag13
((I2010
I9
I27
I5
I29
I11
I0
I270
I-1
t(dtRp2589
aa(lp2590
Vcomment
p2591
aV/* Depth of coverage */  no reason why this section should not have its own shortcut
p2592
aatRp2593
ag2
((lp2594
(lp2595
Vrevid
p2596
aI385018975
aa(lp2597
Vparentid
p2598
aI385018884
aa(lp2599
Vuser
p2600
aVLocation
p2601
aa(lp2602
Vtimestamp
p2603
ag13
((I2010
I9
I15
I18
I13
I40
I2
I258
I-1
t(dtRp2604
aa(lp2605
Vcomment
p2606
aV/* Routine coverage */  point referenced in Molotch's article
p2607
aatRp2608
ag2
((lp2609
(lp2610
Vrevid
p2611
aI385018884
aa(lp2612
Vparentid
p2613
aI385015901
aa(lp2614
Vuser
p2615
aVLocation
p2616
aa(lp2617
Vtimestamp
p2618
ag13
((I2010
I9
I15
I18
I12
I57
I2
I258
I-1
t(dtRp2619
aa(lp2620
Vcomment
p2621
aV/* Routine coverage */  cleaned up reference/cite
p2622
aatRp2623
ag2
((lp2624
(lp2625
Vrevid
p2626
aI385015901
aa(lp2627
Vparentid
p2628
aI385011881
aa(lp2629
Vuser
p2630
aVLocation
p2631
aa(lp2632
Vtimestamp
p2633
ag13
((I2010
I9
I15
I17
I46
I36
I2
I258
I-1
t(dtRp2634
aa(lp2635
Vcomment
p2636
aVcleaned up reference/cite
p2637
aatRp2638
ag2
((lp2639
(lp2640
Vrevid
p2641
aI385011881
aa(lp2642
Vparentid
p2643
aI382588377
aa(lp2644
Vuser
p2645
aVLocation
p2646
aa(lp2647
Vtimestamp
p2648
ag13
((I2010
I9
I15
I17
I8
I18
I2
I258
I-1
t(dtRp2649
aa(lp2650
Vcomment
p2651
aV/* Criminal acts */ clarifying that criminal acts are subject to same guidelines as other events
p2652
aatRp2653
ag2
((lp2654
(lp2655
Vrevid
p2656
aI382588377
aa(lp2657
Vparentid
p2658
aI382576302
aa(lp2659
Vuser
p2660
aVCybercobra
p2661
aa(lp2662
Vtimestamp
p2663
ag13
((I2010
I9
I3
I1
I16
I18
I4
I246
I-1
t(dtRp2664
aa(lp2665
Vcomment
p2666
aV/* Wikinews */ not really relevant as WP accepts CC-BY-SA-only, non-GFDL content
p2667
aatRp2668
ag2
((lp2669
(lp2670
Vrevid
p2671
aI382576302
aa(lp2672
Vparentid
p2673
aI382572708
aa(lp2674
Vuser
p2675
aVFences and windows
p2676
aa(lp2677
Vtimestamp
p2678
ag13
((I2010
I9
I2
I23
I48
I36
I3
I245
I-1
t(dtRp2679
aa(lp2680
Vcomment
p2681
aVUndid revision 382572708 by [[Special:Contributions/Shooterwalker|Shooterwalker]] ([[User talk:Shooterwalker|talk]]) RV, meaning of this is unclear and the tone is poor, please discuss
p2682
aatRp2683
ag2
((lp2684
(lp2685
Vrevid
p2686
aI382572708
aa(lp2687
Vparentid
p2688
aI382468411
aa(lp2689
Vuser
p2690
aVShooterwalker
p2691
aa(lp2692
Vtimestamp
p2693
ag13
((I2010
I9
I2
I23
I22
I35
I3
I245
I-1
t(dtRp2694
aa(lp2695
Vcomment
p2696
aV/* Participants known for one event */
p2697
aatRp2698
ag2
((lp2699
(lp2700
Vrevid
p2701
aI382468411
aa(lp2702
Vparentid
p2703
aI379428461
aa(lp2704
Vuser
p2705
aV87.79.161.210
p2706
aa(lp2707
Vanon
p2708
aV
aa(lp2709
Vtimestamp
p2710
ag13
((I2010
I9
I2
I13
I7
I46
I3
I245
I-1
t(dtRp2711
aa(lp2712
Vcomment
p2713
aVjeez, retarded [[WP:Bolditis]] finds its way even into project space now?
p2714
aatRp2715
ag2
((lp2716
(lp2717
Vrevid
p2718
aI379428461
aa(lp2719
Vparentid
p2720
aI379427887
aa(lp2721
Vminor
p2722
aV
aa(lp2723
Vuser
p2724
aVL Kensington
p2725
aa(lp2726
Vtimestamp
p2727
ag13
((I2010
I8
I17
I17
I8
I26
I1
I229
I-1
t(dtRp2728
aa(lp2729
Vcomment
p2730
aVReverted edits by [[Special:Contributions/Abel metre|Abel metre]] ([[User talk:Abel metre|talk]]) to last revision by Cybercobra ([[WP:HG|HG]])
p2731
aatRp2732
ag2
((lp2733
(lp2734
Vrevid
p2735
aI379427887
aa(lp2736
Vparentid
p2737
aI377786297
aa(lp2738
Vuser
p2739
aVAbel metre
p2740
aa(lp2741
Vtimestamp
p2742
ag13
((I2010
I8
I17
I17
I4
I50
I1
I229
I-1
t(dtRp2743
aa(lp2744
Vcomment
p2745
aV/* Background */
p2746
aatRp2747
ag2
((lp2748
(lp2749
Vrevid
p2750
aI377786297
aa(lp2751
Vparentid
p2752
aI377726164
aa(lp2753
Vminor
p2754
aV
aa(lp2755
Vuser
p2756
aVCybercobra
p2757
aa(lp2758
Vtimestamp
p2759
ag13
((I2010
I8
I8
I8
I33
I10
I6
I220
I-1
t(dtRp2760
aa(lp2761
Vcomment
p2762
aV/* Criminal acts */ more accessible
p2763
aatRp2764
ag2
((lp2765
(lp2766
Vrevid
p2767
aI377726164
aa(lp2768
Vparentid
p2769
aI377696242
aa(lp2770
Vuser
p2771
aVLocation
p2772
aa(lp2773
Vtimestamp
p2774
ag13
((I2010
I8
I7
I23
I9
I47
I5
I219
I-1
t(dtRp2775
aa(lp2776
Vcomment
p2777
aV/* Criminal acts */
p2778
aatRp2779
ag2
((lp2780
(lp2781
Vrevid
p2782
aI377696242
aa(lp2783
Vparentid
p2784
aI377692283
aa(lp2785
Vuser
p2786
aVFences and windows
p2787
aa(lp2788
Vtimestamp
p2789
ag13
((I2010
I8
I7
I19
I28
I6
I5
I219
I-1
t(dtRp2790
aa(lp2791
Vcomment
p2792
aV/* Criminal acts */  Add see also, tweak. Does this section actually add anything??
p2793
aatRp2794
ag2
((lp2795
(lp2796
Vrevid
p2797
aI377692283
aa(lp2798
Vparentid
p2799
aI377691097
aa(lp2800
Vuser
p2801
aVLocation
p2802
aa(lp2803
Vtimestamp
p2804
ag13
((I2010
I8
I7
I18
I58
I42
I5
I219
I-1
t(dtRp2805
aa(lp2806
Vcomment
p2807
aV
aatRp2808
ag2
((lp2809
(lp2810
Vrevid
p2811
aI377691097
aa(lp2812
Vparentid
p2813
aI377590121
aa(lp2814
Vuser
p2815
aVLocation
p2816
aa(lp2817
Vtimestamp
p2818
ag13
((I2010
I8
I7
I18
I50
I20
I5
I219
I-1
t(dtRp2819
aa(lp2820
Vcomment
p2821
aV
aatRp2822
ag2
((lp2823
(lp2824
Vrevid
p2825
aI377590121
aa(lp2826
Vparentid
p2827
aI375481793
aa(lp2828
Vuser
p2829
aVLocation
p2830
aa(lp2831
Vtimestamp
p2832
ag13
((I2010
I8
I7
I3
I37
I55
I5
I219
I-1
t(dtRp2833
aa(lp2834
Vcomment
p2835
aV/* Criminal acts */ {{Inuse|section}}
p2836
aatRp2837
ag2
((lp2838
(lp2839
Vrevid
p2840
aI375481793
aa(lp2841
Vparentid
p2842
aI371891907
aa(lp2843
Vminor
p2844
aV
aa(lp2845
Vuser
p2846
aVNyttend
p2847
aa(lp2848
Vtimestamp
p2849
ag13
((I2010
I7
I26
I3
I30
I42
I0
I207
I-1
t(dtRp2850
aa(lp2851
Vcomment
p2852
aV/* Depth of coverage */ Hyphen
p2853
aatRp2854
ag2
((lp2855
(lp2856
Vrevid
p2857
aI371891907
aa(lp2858
Vparentid
p2859
aI365050980
aa(lp2860
Vuser
p2861
aVLocation
p2862
aa(lp2863
Vtimestamp
p2864
ag13
((I2010
I7
I5
I18
I57
I22
I0
I186
I-1
t(dtRp2865
aa(lp2866
Vcomment
p2867
aV/* Criminal acts */
p2868
aatRp2869
ag2
((lp2870
(lp2871
Vrevid
p2872
aI365050980
aa(lp2873
Vparentid
p2874
aI361807398
aa(lp2875
Vuser
p2876
aVFences and windows
p2877
aa(lp2878
Vtimestamp
p2879
ag13
((I2010
I5
I30
I17
I11
I35
I6
I150
I-1
t(dtRp2880
aa(lp2881
Vcomment
p2882
aVTag is stale
p2883
aatRp2884
ag2
((lp2885
(lp2886
Vrevid
p2887
aI361807398
aa(lp2888
Vparentid
p2889
aI354617250
aa(lp2890
Vuser
p2891
aVWiwaxia
p2892
aa(lp2893
Vtimestamp
p2894
ag13
((I2010
I5
I13
I2
I35
I26
I3
I133
I-1
t(dtRp2895
aa(lp2896
Vcomment
p2897
aVThe plural of "phenomenon" is "phenomena"
p2898
aatRp2899
ag2
((lp2900
(lp2901
Vrevid
p2902
aI354617250
aa(lp2903
Vparentid
p2904
aI354358251
aa(lp2905
Vminor
p2906
aV
aa(lp2907
Vuser
p2908
aVDunncon13
p2909
aa(lp2910
Vtimestamp
p2911
ag13
((I2010
I4
I7
I21
I56
I43
I2
I97
I-1
t(dtRp2912
aa(lp2913
Vcomment
p2914
aV/* Inclusion criteria */ fixed typo
p2915
aatRp2916
ag2
((lp2917
(lp2918
Vrevid
p2919
aI354358251
aa(lp2920
Vparentid
p2921
aI347847801
aa(lp2922
Vuser
p2923
aVEdison
p2924
aa(lp2925
Vtimestamp
p2926
ag13
((I2010
I4
I6
I17
I43
I5
I1
I96
I-1
t(dtRp2927
aa(lp2928
Vcomment
p2929
aV/* Inclusion criteria */ "Water cooler stories:" some catchy inconsequential ews item which people talk about the next day then forget
p2930
aatRp2931
ag2
((lp2932
(lp2933
Vrevid
p2934
aI347847801
aa(lp2935
Vparentid
p2936
aI347847604
aa(lp2937
Vminor
p2938
aV
aa(lp2939
Vuser
p2940
aVFT2
p2941
aa(lp2942
Vtimestamp
p2943
ag13
((I2010
I3
I5
I4
I33
I8
I4
I64
I-1
t(dtRp2944
aa(lp2945
Vcomment
p2946
aV/* Inclusion criteria */ shorten
p2947
aatRp2948
ag2
((lp2949
(lp2950
Vrevid
p2951
aI347847604
aa(lp2952
Vparentid
p2953
aI347846166
aa(lp2954
Vuser
p2955
aVFT2
p2956
aa(lp2957
Vtimestamp
p2958
ag13
((I2010
I3
I5
I4
I31
I25
I4
I64
I-1
t(dtRp2959
aa(lp2960
Vcomment
p2961
aV/* Inclusion criteria */ rmv "for encyclopdic purposes" per talk page
p2962
aatRp2963
ag2
((lp2964
(lp2965
Vrevid
p2966
aI347846166
aa(lp2967
Vparentid
p2968
aI347845333
aa(lp2969
Vminor
p2970
aV
aa(lp2971
Vuser
p2972
aVFT2
p2973
aa(lp2974
Vtimestamp
p2975
ag13
((I2010
I3
I5
I4
I17
I55
I4
I64
I-1
t(dtRp2976
aa(lp2977
Vcomment
p2978
aV/* Inclusion criteria */ edit list of examples
p2979
aatRp2980
ag2
((lp2981
(lp2982
Vrevid
p2983
aI347845333
aa(lp2984
Vparentid
p2985
aI347462564
aa(lp2986
Vuser
p2987
aVFT2
p2988
aa(lp2989
Vtimestamp
p2990
ag13
((I2010
I3
I5
I4
I10
I13
I4
I64
I-1
t(dtRp2991
aa(lp2992
Vcomment
p2993
aV/* Inclusion criteria */ Provide specifics (per talk page)
p2994
aatRp2995
ag2
((lp2996
(lp2997
Vrevid
p2998
aI347462564
aa(lp2999
Vparentid
p3000
aI347398073
aa(lp3001
Vuser
p3002
aVFT2
p3003
aa(lp3004
Vtimestamp
p3005
ag13
((I2010
I3
I3
I6
I32
I14
I2
I62
I-1
t(dtRp3006
aa(lp3007
Vcomment
p3008
aVGroup other circumstances together, for ease of reference. Minor reword to BLP1E for flow.
p3009
aatRp3010
ag2
((lp3011
(lp3012
Vrevid
p3013
aI347398073
aa(lp3014
Vparentid
p3015
aI347301090
aa(lp3016
Vuser
p3017
aVFT2
p3018
aa(lp3019
Vtimestamp
p3020
ag13
((I2010
I3
I2
I23
I33
I25
I1
I61
I-1
t(dtRp3021
aa(lp3022
Vcomment
p3023
aV/* Depth of coverage */ slight clearer wording
p3024
aatRp3025
ag2
((lp3026
(lp3027
Vrevid
p3028
aI347301090
aa(lp3029
Vparentid
p3030
aI347299646
aa(lp3031
Vuser
p3032
aVMjroots
p3033
aa(lp3034
Vtimestamp
p3035
ag13
((I2010
I3
I2
I14
I46
I29
I1
I61
I-1
t(dtRp3036
aa(lp3037
Vcomment
p3038
aV/* See also */ WP{RAILCRASH reverted to a proposed guideline per its talk page
p3039
aatRp3040
ag2
((lp3041
(lp3042
Vrevid
p3043
aI347299646
aa(lp3044
Vparentid
p3045
aI345854773
aa(lp3046
Vuser
p3047
aVFences and windows
p3048
aa(lp3049
Vtimestamp
p3050
ag13
((I2010
I3
I2
I14
I36
I18
I1
I61
I-1
t(dtRp3051
aa(lp3052
Vcomment
p3053
aV/* See also */  + a disputed guideline on rail crashes
p3054
aatRp3055
ag2
((lp3056
(lp3057
Vrevid
p3058
aI345854773
aa(lp3059
Vparentid
p3060
aI345854734
aa(lp3061
Vminor
p3062
aV
aa(lp3063
Vuser
p3064
aVMuffledThud
p3065
aa(lp3066
Vtimestamp
p3067
ag13
((I2010
I2
I23
I11
I6
I6
I1
I54
I-1
t(dtRp3068
aa(lp3069
Vcomment
p3070
aV/* Depth of coverage */  italics
p3071
aatRp3072
ag2
((lp3073
(lp3074
Vrevid
p3075
aI345854734
aa(lp3076
Vparentid
p3077
aI344835152
aa(lp3078
Vuser
p3079
aVMuffledThud
p3080
aa(lp3081
Vtimestamp
p3082
ag13
((I2010
I2
I23
I11
I5
I43
I1
I54
I-1
t(dtRp3083
aa(lp3084
Vcomment
p3085
aV/* Depth of coverage */  globalize a bit per [[WP:CSB]]
p3086
aatRp3087
ag2
((lp3088
(lp3089
Vrevid
p3090
aI344835152
aa(lp3091
Vparentid
p3092
aI344815663
aa(lp3093
Vuser
p3094
aVSuomi Finland 2009
p3095
aa(lp3096
Vtimestamp
p3097
ag13
((I2010
I2
I18
I16
I9
I22
I3
I49
I-1
t(dtRp3098
aa(lp3099
Vcomment
p3100
aV/* Inclusion criteria */ discussed under wrap up by late Jan sub-section.  Allows passage if one criteria not met which is still stricter than current practice
p3101
aatRp3102
ag2
((lp3103
(lp3104
Vrevid
p3105
aI344815663
aa(lp3106
Vparentid
p3107
aI344815375
aa(lp3108
Vminor
p3109
aV
aa(lp3110
Vuser
p3111
aVFT2
p3112
aa(lp3113
Vtimestamp
p3114
ag13
((I2010
I2
I18
I14
I8
I34
I3
I49
I-1
t(dtRp3115
aa(lp3116
Vcomment
p3117
aV/* Geographical scope */ duplicate word
p3118
aatRp3119
ag2
((lp3120
(lp3121
Vrevid
p3122
aI344815375
aa(lp3123
Vparentid
p3124
aI344814839
aa(lp3125
Vuser
p3126
aVFT2
p3127
aa(lp3128
Vtimestamp
p3129
ag13
((I2010
I2
I18
I14
I6
I18
I3
I49
I-1
t(dtRp3130
aa(lp3131
Vcomment
p3132
aVadd "or societal group" to clarify the impact may be across a widespread group rather than only a large physical region. For example a major effect on all disabled people, or all of a significant minority or ethnicity
p3133
aatRp3134
ag2
((lp3135
(lp3136
Vrevid
p3137
aI344814839
aa(lp3138
Vparentid
p3139
aI344814536
aa(lp3140
Vminor
p3141
aV
aa(lp3142
Vuser
p3143
aVFT2
p3144
aa(lp3145
Vtimestamp
p3146
ag13
((I2010
I2
I18
I14
I2
I13
I3
I49
I-1
t(dtRp3147
aa(lp3148
Vcomment
p3149
aV/* Geographical scope */ double "."
p3150
aatRp3151
ag2
((lp3152
(lp3153
Vrevid
p3154
aI344814536
aa(lp3155
Vparentid
p3156
aI344810674
aa(lp3157
Vuser
p3158
aVFT2
p3159
aa(lp3160
Vtimestamp
p3161
ag13
((I2010
I2
I18
I14
I0
I8
I3
I49
I-1
t(dtRp3162
aa(lp3163
Vcomment
p3164
aVGeographic scope and diversity of sources refactor - see talk page
p3165
aatRp3166
ag2
((lp3167
(lp3168
Vrevid
p3169
aI344810674
aa(lp3170
Vparentid
p3171
aI344809912
aa(lp3172
Vuser
p3173
aVFT2
p3174
aa(lp3175
Vtimestamp
p3176
ag13
((I2010
I2
I18
I13
I28
I55
I3
I49
I-1
t(dtRp3177
aa(lp3178
Vcomment
p3179
aV/* Geographical scope */ cannot say "national coverage makes notability likely" as most NOT#NEWS issues did gain national coverage. Rewrite in accordance with what the section seems to say.
p3180
aatRp3181
ag2
((lp3182
(lp3183
Vrevid
p3184
aI344809912
aa(lp3185
Vparentid
p3186
aI344808778
aa(lp3187
Vuser
p3188
aVFT2
p3189
aa(lp3190
Vtimestamp
p3191
ag13
((I2010
I2
I18
I13
I23
I2
I3
I49
I-1
t(dtRp3192
aa(lp3193
Vcomment
p3194
aV/* Background */ expand shortcuts and make this easier reading
p3195
aatRp3196
ag2
((lp3197
(lp3198
Vrevid
p3199
aI344808778
aa(lp3200
Vparentid
p3201
aI344807624
aa(lp3202
Vuser
p3203
aVFT2
p3204
aa(lp3205
Vtimestamp
p3206
ag13
((I2010
I2
I18
I13
I13
I45
I3
I49
I-1
t(dtRp3207
aa(lp3208
Vcomment
p3209
aVslight rewrite of background/inclusion criteria, for flow and brevity
p3210
aatRp3211
ag2
((lp3212
(lp3213
Vrevid
p3214
aI344807624
aa(lp3215
Vparentid
p3216
aI338015999
aa(lp3217
Vuser
p3218
aVFT2
p3219
aa(lp3220
Vtimestamp
p3221
ag13
((I2010
I2
I18
I13
I3
I52
I3
I49
I-1
t(dtRp3222
aa(lp3223
Vcomment
p3224
aV/* Lasting effects */ a precedent for something of /lasting/ significance", I think is meant.
p3225
aatRp3226
ag2
((lp3227
(lp3228
Vrevid
p3229
aI338015999
aa(lp3230
Vparentid
p3231
aI337308827
aa(lp3232
Vuser
p3233
aVSuomi Finland 2009
p3234
aa(lp3235
Vtimestamp
p3236
ag13
((I2010
I1
I15
I16
I18
I13
I4
I15
I-1
t(dtRp3237
aa(lp3238
Vcomment
p3239
aVfixing minor subtle probably unintended sentence, still need to decide if all criteria must be met as is being done on the talk page
p3240
aatRp3241
ag2
((lp3242
(lp3243
Vrevid
p3244
aI337308827
aa(lp3245
Vparentid
p3246
aI337308239
aa(lp3247
Vuser
p3248
aVCybercobra
p3249
aa(lp3250
Vtimestamp
p3251
ag13
((I2010
I1
I12
I2
I30
I27
I1
I12
I-1
t(dtRp3252
aa(lp3253
Vcomment
p3254
aVReverted [[WP:AGF|good faith]] edits by [[Special:Contributions/Suomi Finland 2009|Suomi Finland 2009]]; Breaks structure (see TOC). ([[WP:TW|TW]])
p3255
aatRp3256
ag2
((lp3257
(lp3258
Vrevid
p3259
aI337308239
aa(lp3260
Vparentid
p3261
aI337257836
aa(lp3262
Vuser
p3263
aVSuomi Finland 2009
p3264
aa(lp3265
Vtimestamp
p3266
ag13
((I2010
I1
I12
I2
I26
I35
I1
I12
I-1
t(dtRp3267
aa(lp3268
Vcomment
p3269
aVchanging font size slightly to reflect special nature of one sub-section
p3270
aatRp3271
ag2
((lp3272
(lp3273
Vrevid
p3274
aI337257836
aa(lp3275
Vparentid
p3276
aI337242137
aa(lp3277
Vuser
p3278
aVCybercobra
p3279
aa(lp3280
Vtimestamp
p3281
ag13
((I2010
I1
I11
I21
I27
I49
I0
I11
I-1
t(dtRp3282
aa(lp3283
Vcomment
p3284
aV/* Inclusion criteria */ presentation; I am neutral on the substantive change
p3285
aatRp3286
ag2
((lp3287
(lp3288
Vrevid
p3289
aI337242137
aa(lp3290
Vparentid
p3291
aI336530111
aa(lp3292
Vuser
p3293
aVSuomi Finland 2009
p3294
aa(lp3295
Vtimestamp
p3296
ag13
((I2010
I1
I11
I20
I6
I47
I0
I11
I-1
t(dtRp3297
aa(lp3298
Vcomment
p3299
aV/* Lasting effects */ discussed on talk, seemed to have genuine consensus and good reason to have
p3300
aatRp3301
ag2
((lp3302
(lp3303
Vrevid
p3304
aI336530111
aa(lp3305
Vparentid
p3306
aI336515798
aa(lp3307
Vuser
p3308
aVCybercobra
p3309
aa(lp3310
Vtimestamp
p3311
ag13
((I2010
I1
I8
I3
I5
I1
I4
I8
I-1
t(dtRp3312
aa(lp3313
Vcomment
p3314
aVreassert cosmetic change
p3315
aatRp3316
ag2
((lp3317
(lp3318
Vrevid
p3319
aI336515798
aa(lp3320
Vparentid
p3321
aI336515424
aa(lp3322
Vuser
p3323
aVSuomi Finland 2009
p3324
aa(lp3325
Vtimestamp
p3326
ag13
((I2010
I1
I8
I1
I23
I28
I4
I8
I-1
t(dtRp3327
aa(lp3328
Vcomment
p3329
aVtag
p3330
aatRp3331
ag2
((lp3332
(lp3333
Vrevid
p3334
aI336515424
aa(lp3335
Vparentid
p3336
aI336485426
aa(lp3337
Vuser
p3338
aVSuomi Finland 2009
p3339
aa(lp3340
Vtimestamp
p3341
ag13
((I2010
I1
I8
I1
I20
I54
I4
I8
I-1
t(dtRp3342
aa(lp3343
Vcomment
p3344
aVreverting to stable version and starting discussion on the far reaching changes made within the last few hours.
p3345
aatRp3346
ag2
((lp3347
(lp3348
Vrevid
p3349
aI336485426
aa(lp3350
Vparentid
p3351
aI336485159
aa(lp3352
Vuser
p3353
aVSuomi Finland 2009
p3354
aa(lp3355
Vtimestamp
p3356
ag13
((I2010
I1
I7
I22
I26
I13
I3
I7
I-1
t(dtRp3357
aa(lp3358
Vcomment
p3359
aVReverting back to Possible change #2 (Fences and Windows) changing the criteria language to not conflict with earlier phrase
p3360
aatRp3361
ag2
((lp3362
(lp3363
Vrevid
p3364
aI336485159
aa(lp3365
Vparentid
p3366
aI336473506
aa(lp3367
Vuser
p3368
aVSuomi Finland 2009
p3369
aa(lp3370
Vtimestamp
p3371
ag13
((I2010
I1
I7
I22
I24
I56
I3
I7
I-1
t(dtRp3372
aa(lp3373
Vcomment
p3374
aVPossible change #1 to eliminate conflict with further 5 sections
p3375
aatRp3376
ag2
((lp3377
(lp3378
Vrevid
p3379
aI336473506
aa(lp3380
Vparentid
p3381
aI336320427
aa(lp3382
Vuser
p3383
aVFences and windows
p3384
aa(lp3385
Vtimestamp
p3386
ag13
((I2010
I1
I7
I21
I21
I51
I3
I7
I-1
t(dtRp3387
aa(lp3388
Vcomment
p3389
aV/* Inclusion criteria */  Change summaries of the criteria to make clearer
p3390
aatRp3391
ag2
((lp3392
(lp3393
Vrevid
p3394
aI336320427
aa(lp3395
Vparentid
p3396
aI336311875
aa(lp3397
Vuser
p3398
aVCybercobra
p3399
aa(lp3400
Vtimestamp
p3401
ag13
((I2010
I1
I7
I1
I58
I52
I3
I7
I-1
t(dtRp3402
aa(lp3403
Vcomment
p3404
aVavoid use of page name; bold titular terms
p3405
aatRp3406
ag2
((lp3407
(lp3408
Vrevid
p3409
aI336311875
aa(lp3410
Vparentid
p3411
aI336310980
aa(lp3412
Vuser
p3413
aVFences and windows
p3414
aa(lp3415
Vtimestamp
p3416
ag13
((I2010
I1
I7
I1
I0
I51
I3
I7
I-1
t(dtRp3417
aa(lp3418
Vcomment
p3419
aV/* Depth of coverage */  Shortcut
p3420
aatRp3421
ag2
((lp3422
(lp3423
Vrevid
p3424
aI336310980
aa(lp3425
Vparentid
p3426
aI334763712
aa(lp3427
Vuser
p3428
aVFences and windows
p3429
aa(lp3430
Vtimestamp
p3431
ag13
((I2010
I1
I7
I0
I54
I43
I3
I7
I-1
t(dtRp3432
aa(lp3433
Vcomment
p3434
aV/* Inclusion criteria */  Highlighted requirements
p3435
aatRp3436
ag2
((lp3437
(lp3438
Vrevid
p3439
aI334763712
aa(lp3440
Vparentid
p3441
aI334762716
aa(lp3442
Vuser
p3443
aVAngryapathy
p3444
aa(lp3445
Vtimestamp
p3446
ag13
((I2009
I12
I29
I18
I36
I46
I1
I363
I-1
t(dtRp3447
aa(lp3448
Vcomment
p3449
aVremove vandalism
p3450
aatRp3451
ag2
((lp3452
(lp3453
Vrevid
p3454
aI334762716
aa(lp3455
Vparentid
p3456
aI334761783
aa(lp3457
Vuser
p3458
aVPleazzer123
p3459
aa(lp3460
Vtimestamp
p3461
ag13
((I2009
I12
I29
I18
I30
I1
I1
I363
I-1
t(dtRp3462
aa(lp3463
Vcomment
p3464
aV/* Inclusion criteria */
p3465
aatRp3466
ag2
((lp3467
(lp3468
Vrevid
p3469
aI334761783
aa(lp3470
Vparentid
p3471
aI334761623
aa(lp3472
Vuser
p3473
aVPleazzer123
p3474
aa(lp3475
Vtimestamp
p3476
ag13
((I2009
I12
I29
I18
I24
I8
I1
I363
I-1
t(dtRp3477
aa(lp3478
Vcomment
p3479
aV
aatRp3480
ag2
((lp3481
(lp3482
Vrevid
p3483
aI334761623
aa(lp3484
Vparentid
p3485
aI333568138
aa(lp3486
Vuser
p3487
aVPleazzer123
p3488
aa(lp3489
Vtimestamp
p3490
ag13
((I2009
I12
I29
I18
I23
I12
I1
I363
I-1
t(dtRp3491
aa(lp3492
Vcomment
p3493
aVFlorida State Seminoles, Mens basketball Center called the Civic Center, or the Donald L. Tucker Cener!
p3494
aatRp3495
ag2
((lp3496
(lp3497
Vrevid
p3498
aI333568138
aa(lp3499
Vparentid
p3500
aI333554057
aa(lp3501
Vuser
p3502
aVThe Wordsmith
p3503
aa(lp3504
Vtimestamp
p3505
ag13
((I2009
I12
I23
I15
I41
I12
I2
I357
I-1
t(dtRp3506
aa(lp3507
Vcomment
p3508
aV/* Inclusion criteria */ this guideline must be met *in addition to* the GNG. I think this reflects the consensus of people who supported the proposal. If i'm wrong, feel free to revert
p3509
aatRp3510
ag2
((lp3511
(lp3512
Vrevid
p3513
aI333554057
aa(lp3514
Vparentid
p3515
aI330586903
aa(lp3516
Vuser
p3517
aVBlueboar
p3518
aa(lp3519
Vtimestamp
p3520
ag13
((I2009
I12
I23
I13
I51
I30
I2
I357
I-1
t(dtRp3521
aa(lp3522
Vcomment
p3523
aV/* Background */ apparently it is not "proposed" any more
p3524
aatRp3525
ag2
((lp3526
(lp3527
Vrevid
p3528
aI330586903
aa(lp3529
Vparentid
p3530
aI330486175
aa(lp3531
Vuser
p3532
aVFences and windows
p3533
aa(lp3534
Vtimestamp
p3535
ag13
((I2009
I12
I9
I2
I8
I29
I2
I343
I-1
t(dtRp3536
aa(lp3537
Vcomment
p3538
aV/* Breaking news */  This doesn't need breaking into sections, the concept of anticipating notability is just one part of assessing breaking news articles that does not need highlighting
p3539
aatRp3540
ag2
((lp3541
(lp3542
Vrevid
p3543
aI330486175
aa(lp3544
Vparentid
p3545
aI330024099
aa(lp3546
Vuser
p3547
aVSebwite
p3548
aa(lp3549
Vtimestamp
p3550
ag13
((I2009
I12
I8
I17
I3
I49
I1
I342
I-1
t(dtRp3551
aa(lp3552
Vcomment
p3553
aV/* Breaking news */ replaced link to West Baltimore with link to old version, since this has been changed; provided new heading
p3554
aatRp3555
ag2
((lp3556
(lp3557
Vrevid
p3558
aI330024099
aa(lp3559
Vparentid
p3560
aI330023990
aa(lp3561
Vminor
p3562
aV
aa(lp3563
Vuser
p3564
aVJaymax
p3565
aa(lp3566
Vtimestamp
p3567
ag13
((I2009
I12
I6
I7
I31
I6
I6
I340
I-1
t(dtRp3568
aa(lp3569
Vcomment
p3570
aV/* Breaking news */ gah - fix my repeated 'exists'
p3571
aatRp3572
ag2
((lp3573
(lp3574
Vrevid
p3575
aI330023990
aa(lp3576
Vparentid
p3577
aI330023364
aa(lp3578
Vuser
p3579
aVJaymax
p3580
aa(lp3581
Vtimestamp
p3582
ag13
((I2009
I12
I6
I7
I29
I49
I6
I340
I-1
t(dtRp3583
aa(lp3584
Vcomment
p3585
aV/* Breaking news */ clarify use related ''existing'' article ''if one exists'' for breaking news
p3586
aatRp3587
ag2
((lp3588
(lp3589
Vrevid
p3590
aI330023364
aa(lp3591
Vparentid
p3592
aI330009323
aa(lp3593
Vuser
p3594
aVJaymax
p3595
aa(lp3596
Vtimestamp
p3597
ag13
((I2009
I12
I6
I7
I24
I17
I6
I340
I-1
t(dtRp3598
aa(lp3599
Vcomment
p3600
aV/* Wikinews */ Wikilink licences
p3601
aatRp3602
ag2
((lp3603
(lp3604
Vrevid
p3605
aI330009323
aa(lp3606
Vparentid
p3607
aI329754281
aa(lp3608
Vminor
p3609
aV
aa(lp3610
Vuser
p3611
aVCunard
p3612
aa(lp3613
Vtimestamp
p3614
ag13
((I2009
I12
I6
I5
I15
I43
I6
I340
I-1
t(dtRp3615
aa(lp3616
Vcomment
p3617
aVfixed capitalization and link
p3618
aatRp3619
ag2
((lp3620
(lp3621
Vrevid
p3622
aI329754281
aa(lp3623
Vparentid
p3624
aI329553731
aa(lp3625
Vuser
p3626
aVThaddeusB
p3627
aa(lp3628
Vtimestamp
p3629
ag13
((I2009
I12
I4
I22
I35
I20
I4
I338
I-1
t(dtRp3630
aa(lp3631
Vcomment
p3632
aV/* Lasting effects */ reword for clarity
p3633
aatRp3634
ag2
((lp3635
(lp3636
Vrevid
p3637
aI329553731
aa(lp3638
Vparentid
p3639
aI328985086
aa(lp3640
Vuser
p3641
aVLocation
p3642
aa(lp3643
Vtimestamp
p3644
ag13
((I2009
I12
I3
I22
I48
I11
I3
I337
I-1
t(dtRp3645
aa(lp3646
Vcomment
p3647
aV/* Diversity of sources */  per talk page
p3648
aatRp3649
ag2
((lp3650
(lp3651
Vrevid
p3652
aI328985086
aa(lp3653
Vparentid
p3654
aI328985048
aa(lp3655
Vminor
p3656
aV
aa(lp3657
Vuser
p3658
aVCybercobra
p3659
aa(lp3660
Vtimestamp
p3661
ag13
((I2009
I12
I1
I7
I10
I25
I1
I335
I-1
t(dtRp3662
aa(lp3663
Vcomment
p3664
aV/* Depth of coverage */ phraseology
p3665
aatRp3666
ag2
((lp3667
(lp3668
Vrevid
p3669
aI328985048
aa(lp3670
Vparentid
p3671
aI328982038
aa(lp3672
Vminor
p3673
aV
aa(lp3674
Vuser
p3675
aVCybercobra
p3676
aa(lp3677
Vtimestamp
p3678
ag13
((I2009
I12
I1
I7
I9
I52
I1
I335
I-1
t(dtRp3679
aa(lp3680
Vcomment
p3681
aV/* Breaking news */ formatting
p3682
aatRp3683
ag2
((lp3684
(lp3685
Vrevid
p3686
aI328982038
aa(lp3687
Vparentid
p3688
aI328972382
aa(lp3689
Vuser
p3690
aVCybercobra
p3691
aa(lp3692
Vtimestamp
p3693
ag13
((I2009
I12
I1
I6
I40
I16
I1
I335
I-1
t(dtRp3694
aa(lp3695
Vcomment
p3696
aV/* Inclusion criteria */ not just us I'd think
p3697
aatRp3698
ag2
((lp3699
(lp3700
Vrevid
p3701
aI328972382
aa(lp3702
Vparentid
p3703
aI328891672
aa(lp3704
Vuser
p3705
aVValley2city
p3706
aa(lp3707
Vtimestamp
p3708
ag13
((I2009
I12
I1
I5
I13
I32
I1
I335
I-1
t(dtRp3709
aa(lp3710
Vcomment
p3711
aVPromoting to Guideline Status. See talk page shortly for my rationale
p3712
aatRp3713
ag2
((lp3714
(lp3715
Vrevid
p3716
aI328891672
aa(lp3717
Vparentid
p3718
aI328873680
aa(lp3719
Vuser
p3720
aVCybercobra
p3721
aa(lp3722
Vtimestamp
p3723
ag13
((I2009
I11
I30
I22
I5
I12
I0
I334
I-1
t(dtRp3724
aa(lp3725
Vcomment
p3726
aV/* Geographical scope */ well, if they're all getting a mini-nutshell...
p3727
aatRp3728
ag2
((lp3729
(lp3730
Vrevid
p3731
aI328873680
aa(lp3732
Vparentid
p3733
aI328524558
aa(lp3734
Vuser
p3735
aVLocation
p3736
aa(lp3737
Vtimestamp
p3738
ag13
((I2009
I11
I30
I20
I40
I24
I0
I334
I-1
t(dtRp3739
aa(lp3740
Vcomment
p3741
aV/* Inclusion criteria */ highlighting major point of subsection consistent
p3742
aatRp3743
ag2
((lp3744
(lp3745
Vrevid
p3746
aI328524558
aa(lp3747
Vparentid
p3748
aI328502484
aa(lp3749
Vuser
p3750
aVLocation
p3751
aa(lp3752
Vtimestamp
p3753
ag13
((I2009
I11
I29
I4
I57
I29
I6
I333
I-1
t(dtRp3754
aa(lp3755
Vcomment
p3756
aVA useful link but I'm going to move it to "See also" because it does not specifically refer to the inclusion criteria.
p3757
aatRp3758
ag2
((lp3759
(lp3760
Vrevid
p3761
aI328502484
aa(lp3762
Vparentid
p3763
aI328417124
aa(lp3764
Vminor
p3765
aV
aa(lp3766
Vuser
p3767
aVFences and windows
p3768
aa(lp3769
Vtimestamp
p3770
ag13
((I2009
I11
I29
I2
I32
I5
I6
I333
I-1
t(dtRp3771
aa(lp3772
Vcomment
p3773
aV/* Lasting effects */  Possibly -> Probably
p3774
aatRp3775
ag2
((lp3776
(lp3777
Vrevid
p3778
aI328417124
aa(lp3779
Vparentid
p3780
aI328415592
aa(lp3781
Vuser
p3782
aVFences and windows
p3783
aa(lp3784
Vtimestamp
p3785
ag13
((I2009
I11
I28
I18
I2
I17
I5
I332
I-1
t(dtRp3786
aa(lp3787
Vcomment
p3788
aV/* Lasting effects */  Clarified how this applies to recent events
p3789
aatRp3790
ag2
((lp3791
(lp3792
Vrevid
p3793
aI328415592
aa(lp3794
Vparentid
p3795
aI328330448
aa(lp3796
Vuser
p3797
aVFences and windows
p3798
aa(lp3799
Vtimestamp
p3800
ag13
((I2009
I11
I28
I17
I53
I15
I5
I332
I-1
t(dtRp3801
aa(lp3802
Vcomment
p3803
aV/* Duration of coverage */  Edits to clarify the meaning of this section per talk page discussion
p3804
aatRp3805
ag2
((lp3806
(lp3807
Vrevid
p3808
aI328330448
aa(lp3809
Vparentid
p3810
aI327995605
aa(lp3811
Vuser
p3812
aVCybercobra
p3813
aa(lp3814
Vtimestamp
p3815
ag13
((I2009
I11
I28
I5
I49
I24
I5
I332
I-1
t(dtRp3816
aa(lp3817
Vcomment
p3818
aV/* Inclusion criteria */ does not jive with current "Geographical scope" wording
p3819
aatRp3820
ag2
((lp3821
(lp3822
Vrevid
p3823
aI327995605
aa(lp3824
Vparentid
p3825
aI327944162
aa(lp3826
Vuser
p3827
aVLocation
p3828
aa(lp3829
Vtimestamp
p3830
ag13
((I2009
I11
I26
I5
I38
I59
I3
I330
I-1
t(dtRp3831
aa(lp3832
Vcomment
p3833
aVmajor rewording per Talk page
p3834
aatRp3835
ag2
((lp3836
(lp3837
Vrevid
p3838
aI327944162
aa(lp3839
Vparentid
p3840
aI327426500
aa(lp3841
Vuser
p3842
aVLocation
p3843
aa(lp3844
Vtimestamp
p3845
ag13
((I2009
I11
I25
I22
I54
I18
I2
I329
I-1
t(dtRp3846
aa(lp3847
Vcomment
p3848
aVmoved the wikilink to an earlier reference
p3849
aatRp3850
ag2
((lp3851
(lp3852
Vrevid
p3853
aI327426500
aa(lp3854
Vparentid
p3855
aI327426341
aa(lp3856
Vuser
p3857
aVCybercobra
p3858
aa(lp3859
Vtimestamp
p3860
ag13
((I2009
I11
I23
I6
I15
I25
I0
I327
I-1
t(dtRp3861
aa(lp3862
Vcomment
p3863
aV/* Inclusion criteria */ bullet points -> indents
p3864
aatRp3865
ag2
((lp3866
(lp3867
Vrevid
p3868
aI327426341
aa(lp3869
Vparentid
p3870
aI327412830
aa(lp3871
Vuser
p3872
aVCybercobra
p3873
aa(lp3874
Vtimestamp
p3875
ag13
((I2009
I11
I23
I6
I13
I39
I0
I327
I-1
t(dtRp3876
aa(lp3877
Vcomment
p3878
aV/* Geographical scope */ moderate, feel free to [[WP:BRD]]; remove [[WP:LOCAL]] ref, it's about places, not events
p3879
aatRp3880
ag2
((lp3881
(lp3882
Vrevid
p3883
aI327412830
aa(lp3884
Vparentid
p3885
aI327361826
aa(lp3886
Vuser
p3887
aVLocation
p3888
aa(lp3889
Vtimestamp
p3890
ag13
((I2009
I11
I23
I4
I17
I18
I0
I327
I-1
t(dtRp3891
aa(lp3892
Vcomment
p3893
aV
aatRp3894
ag2
((lp3895
(lp3896
Vrevid
p3897
aI327361826
aa(lp3898
Vparentid
p3899
aI327359086
aa(lp3900
Vminor
p3901
aV
aa(lp3902
Vuser
p3903
aVLocation
p3904
aa(lp3905
Vtimestamp
p3906
ag13
((I2009
I11
I22
I22
I28
I59
I6
I326
I-1
t(dtRp3907
aa(lp3908
Vcomment
p3909
aV/* Lasting effects */
p3910
aatRp3911
ag2
((lp3912
(lp3913
Vrevid
p3914
aI327359086
aa(lp3915
Vparentid
p3916
aI326802568
aa(lp3917
Vminor
p3918
aV
aa(lp3919
Vuser
p3920
aVLocation
p3921
aa(lp3922
Vtimestamp
p3923
ag13
((I2009
I11
I22
I22
I12
I34
I6
I326
I-1
t(dtRp3924
aa(lp3925
Vcomment
p3926
aV/* Breaking news */
p3927
aatRp3928
ag2
((lp3929
(lp3930
Vrevid
p3931
aI326802568
aa(lp3932
Vparentid
p3933
aI326794336
aa(lp3934
Vuser
p3935
aVThe Wordsmith
p3936
aa(lp3937
Vtimestamp
p3938
ag13
((I2009
I11
I19
I21
I19
I15
I3
I323
I-1
t(dtRp3939
aa(lp3940
Vcomment
p3941
aVReverted [[WP:AGF|good faith]] edits by [[Special:Contributions/Suomi Finland 2009|Suomi Finland 2009]]; This idea is already present in another section. ([[WP:TW|TW]])
p3942
aatRp3943
ag2
((lp3944
(lp3945
Vrevid
p3946
aI326794336
aa(lp3947
Vparentid
p3948
aI326668963
aa(lp3949
Vuser
p3950
aVSuomi Finland 2009
p3951
aa(lp3952
Vtimestamp
p3953
ag13
((I2009
I11
I19
I20
I32
I29
I3
I323
I-1
t(dtRp3954
aa(lp3955
Vcomment
p3956
aV/* Geographical scope */ inserted
p3957
aatRp3958
ag2
((lp3959
(lp3960
Vrevid
p3961
aI326668963
aa(lp3962
Vparentid
p3963
aI326595368
aa(lp3964
Vuser
p3965
aVCybercobra
p3966
aa(lp3967
Vtimestamp
p3968
ag13
((I2009
I11
I19
I3
I39
I24
I3
I323
I-1
t(dtRp3969
aa(lp3970
Vcomment
p3971
aV/* Geographical scope */ I call BS on the amount of reliable sources being irrelevant
p3972
aatRp3973
ag2
((lp3974
(lp3975
Vrevid
p3976
aI326595368
aa(lp3977
Vparentid
p3978
aI326592609
aa(lp3979
Vuser
p3980
aVBigtimepeace
p3981
aa(lp3982
Vtimestamp
p3983
ag13
((I2009
I11
I18
I20
I4
I41
I2
I322
I-1
t(dtRp3984
aa(lp3985
Vcomment
p3986
aV/* Geographical scope */ further soften language here, though we might want to specify other types of exceptions beyond elections, see new section on talk page
p3987
aatRp3988
ag2
((lp3989
(lp3990
Vrevid
p3991
aI326592609
aa(lp3992
Vparentid
p3993
aI326503005
aa(lp3994
Vuser
p3995
aVThe Wordsmith
p3996
aa(lp3997
Vtimestamp
p3998
ag13
((I2009
I11
I18
I19
I49
I38
I2
I322
I-1
t(dtRp3999
aa(lp4000
Vcomment
p4001
aV/* Geographical scope */ softening wording of section per concerns on Talk page
p4002
aatRp4003
ag2
((lp4004
(lp4005
Vrevid
p4006
aI326503005
aa(lp4007
Vparentid
p4008
aI326502376
aa(lp4009
Vuser
p4010
aVCybercobra
p4011
aa(lp4012
Vtimestamp
p4013
ag13
((I2009
I11
I18
I8
I47
I42
I2
I322
I-1
t(dtRp4014
aa(lp4015
Vcomment
p4016
aV/* Wikinews */ vice-versa is fine however
p4017
aatRp4018
ag2
((lp4019
(lp4020
Vrevid
p4021
aI326502376
aa(lp4022
Vparentid
p4023
aI326364223
aa(lp4024
Vuser
p4025
aVCybercobra
p4026
aa(lp4027
Vtimestamp
p4028
ag13
((I2009
I11
I18
I8
I40
I36
I2
I322
I-1
t(dtRp4029
aa(lp4030
Vcomment
p4031
aVsince there's Category:Fictional events
p4032
aatRp4033
ag2
((lp4034
(lp4035
Vrevid
p4036
aI326364223
aa(lp4037
Vparentid
p4038
aI326358780
aa(lp4039
Vuser
p4040
aVHiding
p4041
aa(lp4042
Vtimestamp
p4043
ag13
((I2009
I11
I17
I16
I20
I5
I1
I321
I-1
t(dtRp4044
aa(lp4045
Vcomment
p4046
aV/* Geographical scope */ rem link to failed proposal
p4047
aatRp4048
ag2
((lp4049
(lp4050
Vrevid
p4051
aI326358780
aa(lp4052
Vparentid
p4053
aI326266876
aa(lp4054
Vminor
p4055
aV
aa(lp4056
Vuser
p4057
aVBlurpeace
p4058
aa(lp4059
Vtimestamp
p4060
ag13
((I2009
I11
I17
I15
I45
I6
I1
I321
I-1
t(dtRp4061
aa(lp4062
Vcomment
p4063
aV/* Routine coverage */ spacing
p4064
aatRp4065
ag2
((lp4066
(lp4067
Vrevid
p4068
aI326266876
aa(lp4069
Vparentid
p4070
aI326253523
aa(lp4071
Vuser
p4072
aVFences and windows
p4073
aa(lp4074
Vtimestamp
p4075
ag13
((I2009
I11
I17
I1
I29
I22
I1
I321
I-1
t(dtRp4076
aa(lp4077
Vcomment
p4078
aV/* Breaking news */  Minor addition to note that a delay to nomination for deletion may result in nomination being seen to be unnecessary, per talk comments.
p4079
aatRp4080
ag2
((lp4081
(lp4082
Vrevid
p4083
aI326253523
aa(lp4084
Vparentid
p4085
aI326238782
aa(lp4086
Vuser
p4087
aVThe Wordsmith
p4088
aa(lp4089
Vtimestamp
p4090
ag13
((I2009
I11
I17
I0
I5
I53
I1
I321
I-1
t(dtRp4091
aa(lp4092
Vcomment
p4093
aVmanually undid most of Location's edit per talk page, and clarified criteria further
p4094
aatRp4095
ag2
((lp4096
(lp4097
Vrevid
p4098
aI326238782
aa(lp4099
Vparentid
p4100
aI326236171
aa(lp4101
Vuser
p4102
aVMasem
p4103
aa(lp4104
Vtimestamp
p4105
ag13
((I2009
I11
I16
I22
I34
I20
I0
I320
I-1
t(dtRp4106
aa(lp4107
Vcomment
p4108
aV/* Depth of coverage */ shows are italized.
p4109
aatRp4110
ag2
((lp4111
(lp4112
Vrevid
p4113
aI326236171
aa(lp4114
Vparentid
p4115
aI326231667
aa(lp4116
Vuser
p4117
aVCybercobra
p4118
aa(lp4119
Vtimestamp
p4120
ag13
((I2009
I11
I16
I22
I19
I35
I0
I320
I-1
t(dtRp4121
aa(lp4122
Vcomment
p4123
aV/* Sensationalism */ +"may"
p4124
aatRp4125
ag2
((lp4126
(lp4127
Vrevid
p4128
aI326231667
aa(lp4129
Vparentid
p4130
aI326222573
aa(lp4131
Vuser
p4132
aVLocation
p4133
aa(lp4134
Vtimestamp
p4135
ag13
((I2009
I11
I16
I21
I53
I53
I0
I320
I-1
t(dtRp4136
aa(lp4137
Vcomment
p4138
aV/* Inclusion criteria */  I will discuss on the talk page,
p4139
aatRp4140
ag2
((lp4141
(lp4142
Vrevid
p4143
aI326222573
aa(lp4144
Vparentid
p4145
aI326101987
aa(lp4146
Vuser
p4147
aVLocation
p4148
aa(lp4149
Vtimestamp
p4150
ag13
((I2009
I11
I16
I20
I58
I17
I0
I320
I-1
t(dtRp4151
aa(lp4152
Vcomment
p4153
aV
aatRp4154
ag2
((lp4155
(lp4156
Vrevid
p4157
aI326101987
aa(lp4158
Vparentid
p4159
aI326095280
aa(lp4160
Vminor
p4161
aV
aa(lp4162
Vuser
p4163
aVThe Wordsmith
p4164
aa(lp4165
Vtimestamp
p4166
ag13
((I2009
I11
I16
I3
I53
I12
I0
I320
I-1
t(dtRp4167
aa(lp4168
Vcomment
p4169
aVmoved [[Wikipedia:Notability (news events)]] to [[Wikipedia:Notability (events)]]: per Talk Page, "Event" is clear, while "news event" is poorly defined.
p4170
aatRp4171
ag2
((lp4172
(lp4173
Vrevid
p4174
aI326095280
aa(lp4175
Vparentid
p4176
aI326095204
aa(lp4177
Vuser
p4178
aVLocation
p4179
aa(lp4180
Vtimestamp
p4181
ag13
((I2009
I11
I16
I2
I59
I26
I0
I320
I-1
t(dtRp4182
aa(lp4183
Vcomment
p4184
aV/* Participants */  per talk
p4185
aatRp4186
ag2
((lp4187
(lp4188
Vrevid
p4189
aI326095204
aa(lp4190
Vparentid
p4191
aI325774481
aa(lp4192
Vuser
p4193
aVLocation
p4194
aa(lp4195
Vtimestamp
p4196
ag13
((I2009
I11
I16
I2
I58
I48
I0
I320
I-1
t(dtRp4197
aa(lp4198
Vcomment
p4199
aV/* Depth of coverage */  per talk
p4200
aatRp4201
ag2
((lp4202
(lp4203
Vrevid
p4204
aI325774481
aa(lp4205
Vparentid
p4206
aI325724008
aa(lp4207
Vuser
p4208
aVRusty Cashman
p4209
aa(lp4210
Vtimestamp
p4211
ag13
((I2009
I11
I14
I10
I6
I58
I5
I318
I-1
t(dtRp4212
aa(lp4213
Vcomment
p4214
aV/* Routine coverage */  slight change in wording emphasis - And finally is really a broadcast not a print term
p4215
aatRp4216
ag2
((lp4217
(lp4218
Vrevid
p4219
aI325724008
aa(lp4220
Vparentid
p4221
aI325696149
aa(lp4222
Vuser
p4223
aVFences and windows
p4224
aa(lp4225
Vtimestamp
p4226
ag13
((I2009
I11
I14
I1
I32
I34
I5
I318
I-1
t(dtRp4227
aa(lp4228
Vcomment
p4229
aV/* Routine coverage */  Added note about "And finally" stories
p4230
aatRp4231
ag2
((lp4232
(lp4233
Vrevid
p4234
aI325696149
aa(lp4235
Vparentid
p4236
aI325674031
aa(lp4237
Vuser
p4238
aVFences and windows
p4239
aa(lp4240
Vtimestamp
p4241
ag13
((I2009
I11
I13
I22
I9
I32
I4
I317
I-1
t(dtRp4242
aa(lp4243
Vcomment
p4244
aVSubtle change to replace link to [[news]] with link to "event" entry on Wiktionary, to better suggest what the guideline is about, link to news later.
p4245
aatRp4246
ag2
((lp4247
(lp4248
Vrevid
p4249
aI325674031
aa(lp4250
Vparentid
p4251
aI325673171
aa(lp4252
Vuser
p4253
aVThe Wordsmith
p4254
aa(lp4255
Vtimestamp
p4256
ag13
((I2009
I11
I13
I19
I53
I34
I4
I317
I-1
t(dtRp4257
aa(lp4258
Vcomment
p4259
aV/* Inclusion criteria */ small restructuring of section to clarify exactly what the criteria are
p4260
aatRp4261
ag2
((lp4262
(lp4263
Vrevid
p4264
aI325673171
aa(lp4265
Vparentid
p4266
aI325672625
aa(lp4267
Vminor
p4268
aV
aa(lp4269
Vuser
p4270
aVThe Wordsmith
p4271
aa(lp4272
Vtimestamp
p4273
ag13
((I2009
I11
I13
I19
I47
I58
I4
I317
I-1
t(dtRp4274
aa(lp4275
Vcomment
p4276
aVmove sensationalism section from inclusion criteria to its own section
p4277
aatRp4278
ag2
((lp4279
(lp4280
Vrevid
p4281
aI325672625
aa(lp4282
Vparentid
p4283
aI325669365
aa(lp4284
Vminor
p4285
aV
aa(lp4286
Vuser
p4287
aVThe Wordsmith
p4288
aa(lp4289
Vtimestamp
p4290
ag13
((I2009
I11
I13
I19
I44
I35
I4
I317
I-1
t(dtRp4291
aa(lp4292
Vcomment
p4293
aV/* Inclusion guidelines */ Inclusion guidelines ---> Inclusion criteria
p4294
aatRp4295
ag2
((lp4296
(lp4297
Vrevid
p4298
aI325669365
aa(lp4299
Vparentid
p4300
aI325666605
aa(lp4301
Vuser
p4302
aVRusty Cashman
p4303
aa(lp4304
Vtimestamp
p4305
ag13
((I2009
I11
I13
I19
I23
I49
I4
I317
I-1
t(dtRp4306
aa(lp4307
Vcomment
p4308
aV/* Routine coverage */  strengthen addition a little.
p4309
aatRp4310
ag2
((lp4311
(lp4312
Vrevid
p4313
aI325666605
aa(lp4314
Vparentid
p4315
aI325575219
aa(lp4316
Vuser
p4317
aVRusty Cashman
p4318
aa(lp4319
Vtimestamp
p4320
ag13
((I2009
I11
I13
I19
I6
I16
I4
I317
I-1
t(dtRp4321
aa(lp4322
Vcomment
p4323
aV/* Routine coverage */  I think we should mention humorous and human interest stories as being particularly non notable
p4324
aatRp4325
ag2
((lp4326
(lp4327
Vrevid
p4328
aI325575219
aa(lp4329
Vparentid
p4330
aI325574658
aa(lp4331
Vuser
p4332
aVThe Wordsmith
p4333
aa(lp4334
Vtimestamp
p4335
ag13
((I2009
I11
I13
I5
I58
I24
I4
I317
I-1
t(dtRp4336
aa(lp4337
Vcomment
p4338
aVattempt at clarifying nutshell
p4339
aatRp4340
ag2
((lp4341
(lp4342
Vrevid
p4343
aI325574658
aa(lp4344
Vparentid
p4345
aI325528619
aa(lp4346
Vuser
p4347
aVThe Wordsmith
p4348
aa(lp4349
Vtimestamp
p4350
ag13
((I2009
I11
I13
I5
I51
I54
I4
I317
I-1
t(dtRp4351
aa(lp4352
Vcomment
p4353
aVfix potentially [[WP:BITE|BITEy]] sentence per concern raised on talk page
p4354
aatRp4355
ag2
((lp4356
(lp4357
Vrevid
p4358
aI325528619
aa(lp4359
Vparentid
p4360
aI325485449
aa(lp4361
Vuser
p4362
aVFences and windows
p4363
aa(lp4364
Vtimestamp
p4365
ag13
((I2009
I11
I12
I23
I36
I47
I3
I316
I-1
t(dtRp4366
aa(lp4367
Vcomment
p4368
aV/* Breaking news */  Expanding point about delaying deletion nominations
p4369
aatRp4370
ag2
((lp4371
(lp4372
Vrevid
p4373
aI325485449
aa(lp4374
Vparentid
p4375
aI325453490
aa(lp4376
Vuser
p4377
aVSuomi Finland 2009
p4378
aa(lp4379
Vtimestamp
p4380
ag13
((I2009
I11
I12
I19
I32
I54
I3
I316
I-1
t(dtRp4381
aa(lp4382
Vcomment
p4383
aV/* Inclusion guidelines */ added shortcut
p4384
aatRp4385
ag2
((lp4386
(lp4387
Vrevid
p4388
aI325453490
aa(lp4389
Vparentid
p4390
aI325452307
aa(lp4391
Vuser
p4392
aVThe Wordsmith
p4393
aa(lp4394
Vtimestamp
p4395
ag13
((I2009
I11
I12
I16
I9
I33
I3
I316
I-1
t(dtRp4396
aa(lp4397
Vcomment
p4398
aVReverted to revision 325147937 by [[Special:Contributions/Fences and windows|Fences and windows]]; The template is the correct one to use for policies or guidelines. We don't need to be messing around with substing and modifying templates when we hav
p4399
aatRp4400
ag2
((lp4401
(lp4402
Vrevid
p4403
aI325452307
aa(lp4404
Vparentid
p4405
aI325452171
aa(lp4406
Vuser
p4407
aVSuomi Finland 2009
p4408
aa(lp4409
Vtimestamp
p4410
ag13
((I2009
I11
I12
I16
I1
I52
I3
I316
I-1
t(dtRp4411
aa(lp4412
Vcomment
p4413
aVtypo
p4414
aatRp4415
ag2
((lp4416
(lp4417
Vrevid
p4418
aI325452171
aa(lp4419
Vparentid
p4420
aI325147937
aa(lp4421
Vuser
p4422
aVSuomi Finland 2009
p4423
aa(lp4424
Vtimestamp
p4425
ag13
((I2009
I11
I12
I16
I0
I56
I3
I316
I-1
t(dtRp4426
aa(lp4427
Vcomment
p4428
aVtrying to fix per talk page
p4429
aatRp4430
ag2
((lp4431
(lp4432
Vrevid
p4433
aI325147937
aa(lp4434
Vparentid
p4435
aI325147364
aa(lp4436
Vuser
p4437
aVFences and windows
p4438
aa(lp4439
Vtimestamp
p4440
ag13
((I2009
I11
I10
I23
I58
I6
I1
I314
I-1
t(dtRp4441
aa(lp4442
Vcomment
p4443
aVRfC tag goes on talk.
p4444
aatRp4445
ag2
((lp4446
(lp4447
Vrevid
p4448
aI325147364
aa(lp4449
Vparentid
p4450
aI325125185
aa(lp4451
Vuser
p4452
aVFences and windows
p4453
aa(lp4454
Vtimestamp
p4455
ag13
((I2009
I11
I10
I23
I54
I38
I1
I314
I-1
t(dtRp4456
aa(lp4457
Vcomment
p4458
aV/* See also */  Link to "In the news"
p4459
aatRp4460
ag2
((lp4461
(lp4462
Vrevid
p4463
aI325125185
aa(lp4464
Vparentid
p4465
aI325125010
aa(lp4466
Vminor
p4467
aV
aa(lp4468
Vuser
p4469
aVCybercobra
p4470
aa(lp4471
Vtimestamp
p4472
ag13
((I2009
I11
I10
I21
I50
I14
I1
I314
I-1
t(dtRp4473
aa(lp4474
Vcomment
p4475
aV/* Inclusion guidelines */ serial ,
p4476
aatRp4477
ag2
((lp4478
(lp4479
Vrevid
p4480
aI325125010
aa(lp4481
Vparentid
p4482
aI325124901
aa(lp4483
Vuser
p4484
aVCybercobra
p4485
aa(lp4486
Vtimestamp
p4487
ag13
((I2009
I11
I10
I21
I49
I22
I1
I314
I-1
t(dtRp4488
aa(lp4489
Vcomment
p4490
aV/* Depth of coverage */ ref tags
p4491
aatRp4492
ag2
((lp4493
(lp4494
Vrevid
p4495
aI325124901
aa(lp4496
Vparentid
p4497
aI325124732
aa(lp4498
Vuser
p4499
aVCybercobra
p4500
aa(lp4501
Vtimestamp
p4502
ag13
((I2009
I11
I10
I21
I48
I49
I1
I314
I-1
t(dtRp4503
aa(lp4504
Vcomment
p4505
aV/* Routine coverage */ ref tags
p4506
aatRp4507
ag2
((lp4508
(lp4509
Vrevid
p4510
aI325124732
aa(lp4511
Vparentid
p4512
aI325123228
aa(lp4513
Vuser
p4514
aVCybercobra
p4515
aa(lp4516
Vtimestamp
p4517
ag13
((I2009
I11
I10
I21
I47
I56
I1
I314
I-1
t(dtRp4518
aa(lp4519
Vcomment
p4520
aV/* See also */ I hate with a passion raw external links
p4521
aatRp4522
ag2
((lp4523
(lp4524
Vrevid
p4525
aI325123228
aa(lp4526
Vparentid
p4527
aI325094311
aa(lp4528
Vuser
p4529
aVCybercobra
p4530
aa(lp4531
Vtimestamp
p4532
ag13
((I2009
I11
I10
I21
I39
I58
I1
I314
I-1
t(dtRp4533
aa(lp4534
Vcomment
p4535
aV/* See also */ kinda odd having this here
p4536
aatRp4537
ag2
((lp4538
(lp4539
Vrevid
p4540
aI325094311
aa(lp4541
Vparentid
p4542
aI325090893
aa(lp4543
Vuser
p4544
aVFences and windows
p4545
aa(lp4546
Vtimestamp
p4547
ag13
((I2009
I11
I10
I19
I3
I1
I1
I314
I-1
t(dtRp4548
aa(lp4549
Vcomment
p4550
aV/* Depth of coverage */  Removing this definition of routine reporting as it is weak on reflection: "and that is written by 'beat reporters' rather than columnists[http://www.ncbi.nlm.nih.gov/pmc/articles/PMC2585242/]"
p4551
aatRp4552
ag2
((lp4553
(lp4554
Vrevid
p4555
aI325090893
aa(lp4556
Vparentid
p4557
aI325086002
aa(lp4558
Vuser
p4559
aVThe Wordsmith
p4560
aa(lp4561
Vtimestamp
p4562
ag13
((I2009
I11
I10
I18
I44
I57
I1
I314
I-1
t(dtRp4563
aa(lp4564
Vcomment
p4565
aV/* Routine coverage */ rm confusing table
p4566
aatRp4567
ag2
((lp4568
(lp4569
Vrevid
p4570
aI325086002
aa(lp4571
Vparentid
p4572
aI325084777
aa(lp4573
Vuser
p4574
aVFences and windows
p4575
aa(lp4576
Vtimestamp
p4577
ag13
((I2009
I11
I10
I18
I17
I4
I1
I314
I-1
t(dtRp4578
aa(lp4579
Vcomment
p4580
aV/* Breaking news */  Reworked anticipation section slightly, to include a draft note that articles about major unexpected or unprecedented events tend to be kept
p4581
aatRp4582
ag2
((lp4583
(lp4584
Vrevid
p4585
aI325084777
aa(lp4586
Vparentid
p4587
aI325079648
aa(lp4588
Vuser
p4589
aVThe Wordsmith
p4590
aa(lp4591
Vtimestamp
p4592
ag13
((I2009
I11
I10
I18
I9
I34
I1
I314
I-1
t(dtRp4593
aa(lp4594
Vcomment
p4595
aVopening RFC
p4596
aatRp4597
ag2
((lp4598
(lp4599
Vrevid
p4600
aI325079648
aa(lp4601
Vparentid
p4602
aI325079194
aa(lp4603
Vminor
p4604
aV
aa(lp4605
Vuser
p4606
aVThe Wordsmith
p4607
aa(lp4608
Vtimestamp
p4609
ag13
((I2009
I11
I10
I17
I40
I51
I1
I314
I-1
t(dtRp4610
aa(lp4611
Vcomment
p4612
aV/* Diversity of sources */ formatting and phrasing
p4613
aatRp4614
ag2
((lp4615
(lp4616
Vrevid
p4617
aI325079194
aa(lp4618
Vparentid
p4619
aI325067561
aa(lp4620
Vuser
p4621
aVThe Wordsmith
p4622
aa(lp4623
Vtimestamp
p4624
ag13
((I2009
I11
I10
I17
I38
I10
I1
I314
I-1
t(dtRp4625
aa(lp4626
Vcomment
p4627
aVadd shortcut
p4628
aatRp4629
ag2
((lp4630
(lp4631
Vrevid
p4632
aI325067561
aa(lp4633
Vparentid
p4634
aI324875633
aa(lp4635
Vuser
p4636
aVFences and windows
p4637
aa(lp4638
Vtimestamp
p4639
ag13
((I2009
I11
I10
I16
I29
I18
I1
I314
I-1
t(dtRp4640
aa(lp4641
Vcomment
p4642
aV/* See also */  Added link to [[WP:AIRCRASH]]
p4643
aatRp4644
ag2
((lp4645
(lp4646
Vrevid
p4647
aI324875633
aa(lp4648
Vparentid
p4649
aI324875442
aa(lp4650
Vminor
p4651
aV
aa(lp4652
Vuser
p4653
aVSebwite
p4654
aa(lp4655
Vtimestamp
p4656
ag13
((I2009
I11
I9
I17
I57
I18
I0
I313
I-1
t(dtRp4657
aa(lp4658
Vcomment
p4659
aV/* Breaking news */ single shortcut template
p4660
aatRp4661
ag2
((lp4662
(lp4663
Vrevid
p4664
aI324875442
aa(lp4665
Vparentid
p4666
aI324504050
aa(lp4667
Vuser
p4668
aVSebwite
p4669
aa(lp4670
Vtimestamp
p4671
ag13
((I2009
I11
I9
I17
I56
I12
I0
I313
I-1
t(dtRp4672
aa(lp4673
Vcomment
p4674
aV/* Breaking news */ reported plan was against George W. Bush
p4675
aatRp4676
ag2
((lp4677
(lp4678
Vrevid
p4679
aI324504050
aa(lp4680
Vparentid
p4681
aI324503621
aa(lp4682
Vuser
p4683
aVFences and windows
p4684
aa(lp4685
Vtimestamp
p4686
ag13
((I2009
I11
I7
I19
I18
I34
I5
I311
I-1
t(dtRp4687
aa(lp4688
Vcomment
p4689
aV/* Routine coverage */  Removed "Non-routine coverage may include" as it is too vague to be useful
p4690
aatRp4691
ag2
((lp4692
(lp4693
Vrevid
p4694
aI324503621
aa(lp4695
Vparentid
p4696
aI324501522
aa(lp4697
Vuser
p4698
aVFences and windows
p4699
aa(lp4700
Vtimestamp
p4701
ag13
((I2009
I11
I7
I19
I16
I17
I5
I311
I-1
t(dtRp4702
aa(lp4703
Vcomment
p4704
aV/* Lasting effects */  Simplified section
p4705
aatRp4706
ag2
((lp4707
(lp4708
Vrevid
p4709
aI324501522
aa(lp4710
Vparentid
p4711
aI324496310
aa(lp4712
Vuser
p4713
aVFences and windows
p4714
aa(lp4715
Vtimestamp
p4716
ag13
((I2009
I11
I7
I19
I2
I40
I5
I311
I-1
t(dtRp4717
aa(lp4718
Vcomment
p4719
aV/* Breaking news */  Merged content from "Anticipation" into "Breaking news" without deleting the content
p4720
aatRp4721
ag2
((lp4722
(lp4723
Vrevid
p4724
aI324496310
aa(lp4725
Vparentid
p4726
aI324495943
aa(lp4727
Vminor
p4728
aV
aa(lp4729
Vuser
p4730
aVFences and windows
p4731
aa(lp4732
Vtimestamp
p4733
ag13
((I2009
I11
I7
I18
I25
I12
I5
I311
I-1
t(dtRp4734
aa(lp4735
Vcomment
p4736
aV/* Routine coverage */
p4737
aatRp4738
ag2
((lp4739
(lp4740
Vrevid
p4741
aI324495943
aa(lp4742
Vparentid
p4743
aI324495715
aa(lp4744
Vuser
p4745
aVFences and windows
p4746
aa(lp4747
Vtimestamp
p4748
ag13
((I2009
I11
I7
I18
I22
I50
I5
I311
I-1
t(dtRp4749
aa(lp4750
Vcomment
p4751
aV/* Routine coverage */  Removed unnecessary qualification
p4752
aatRp4753
ag2
((lp4754
(lp4755
Vrevid
p4756
aI324495715
aa(lp4757
Vparentid
p4758
aI324495056
aa(lp4759
Vuser
p4760
aVFences and windows
p4761
aa(lp4762
Vtimestamp
p4763
ag13
((I2009
I11
I7
I18
I21
I21
I5
I311
I-1
t(dtRp4764
aa(lp4765
Vcomment
p4766
aV/* Routine long-term coverage */  Removing section. It isn't clear enough what this adds or how to apply this section in practice, and it strays into the area of [[WP:N/CA]]
p4767
aatRp4768
ag2
((lp4769
(lp4770
Vrevid
p4771
aI324495056
aa(lp4772
Vparentid
p4773
aI324494069
aa(lp4774
Vuser
p4775
aVFences and windows
p4776
aa(lp4777
Vtimestamp
p4778
ag13
((I2009
I11
I7
I18
I16
I35
I5
I311
I-1
t(dtRp4779
aa(lp4780
Vcomment
p4781
aV/* Geographical scope */  Simplified geographical scope section
p4782
aatRp4783
ag2
((lp4784
(lp4785
Vrevid
p4786
aI324494069
aa(lp4787
Vparentid
p4788
aI324493978
aa(lp4789
Vminor
p4790
aV
aa(lp4791
Vuser
p4792
aVFences and windows
p4793
aa(lp4794
Vtimestamp
p4795
ag13
((I2009
I11
I7
I18
I9
I39
I5
I311
I-1
t(dtRp4796
aa(lp4797
Vcomment
p4798
aV/* Reliability and bias */
p4799
aatRp4800
ag2
((lp4801
(lp4802
Vrevid
p4803
aI324493978
aa(lp4804
Vparentid
p4805
aI324493293
aa(lp4806
Vuser
p4807
aVFences and windows
p4808
aa(lp4809
Vtimestamp
p4810
ag13
((I2009
I11
I7
I18
I9
I2
I5
I311
I-1
t(dtRp4811
aa(lp4812
Vcomment
p4813
aV/* Reliability and bias */  Added note about WP:NOTSCANDAL
p4814
aatRp4815
ag2
((lp4816
(lp4817
Vrevid
p4818
aI324493293
aa(lp4819
Vparentid
p4820
aI323807609
aa(lp4821
Vuser
p4822
aVFences and windows
p4823
aa(lp4824
Vtimestamp
p4825
ag13
((I2009
I11
I7
I18
I4
I23
I5
I311
I-1
t(dtRp4826
aa(lp4827
Vcomment
p4828
aV/* Cause and effect */  Title & shortcut edit
p4829
aatRp4830
ag2
((lp4831
(lp4832
Vrevid
p4833
aI323807609
aa(lp4834
Vparentid
p4835
aI323804865
aa(lp4836
Vuser
p4837
aVFences and windows
p4838
aa(lp4839
Vtimestamp
p4840
ag13
((I2009
I11
I4
I1
I8
I10
I2
I308
I-1
t(dtRp4841
aa(lp4842
Vcomment
p4843
aVSorted out redundancy of titles
p4844
aatRp4845
ag2
((lp4846
(lp4847
Vrevid
p4848
aI323804865
aa(lp4849
Vparentid
p4850
aI323727524
aa(lp4851
Vuser
p4852
aVFences and windows
p4853
aa(lp4854
Vtimestamp
p4855
ag13
((I2009
I11
I4
I0
I52
I5
I2
I308
I-1
t(dtRp4856
aa(lp4857
Vcomment
p4858
aVNo need to merge in [[WP:News articles]], that essay's creator objected.
p4859
aatRp4860
ag2
((lp4861
(lp4862
Vrevid
p4863
aI323727524
aa(lp4864
Vparentid
p4865
aI323725487
aa(lp4866
Vuser
p4867
aVSebwite
p4868
aa(lp4869
Vtimestamp
p4870
ag13
((I2009
I11
I3
I17
I45
I33
I1
I307
I-1
t(dtRp4871
aa(lp4872
Vcomment
p4873
aVremove {{construction}} tag; no longer needed here
p4874
aatRp4875
ag2
((lp4876
(lp4877
Vrevid
p4878
aI323725487
aa(lp4879
Vparentid
p4880
aI323720029
aa(lp4881
Vuser
p4882
aVSebwite
p4883
aa(lp4884
Vtimestamp
p4885
ag13
((I2009
I11
I3
I17
I35
I27
I1
I307
I-1
t(dtRp4886
aa(lp4887
Vcomment
p4888
aV/* Routine coverage */ routine long term
p4889
aatRp4890
ag2
((lp4891
(lp4892
Vrevid
p4893
aI323720029
aa(lp4894
Vparentid
p4895
aI323718558
aa(lp4896
Vuser
p4897
aVSebwite
p4898
aa(lp4899
Vtimestamp
p4900
ag13
((I2009
I11
I3
I17
I8
I6
I1
I307
I-1
t(dtRp4901
aa(lp4902
Vcomment
p4903
aV/* Anticipation */ example of what is not
p4904
aatRp4905
ag2
((lp4906
(lp4907
Vrevid
p4908
aI323718558
aa(lp4909
Vparentid
p4910
aI323714474
aa(lp4911
Vminor
p4912
aV
aa(lp4913
Vuser
p4914
aVSebwite
p4915
aa(lp4916
Vtimestamp
p4917
ag13
((I2009
I11
I3
I17
I0
I9
I1
I307
I-1
t(dtRp4918
aa(lp4919
Vcomment
p4920
aV/* Cause and effect */ reword
p4921
aatRp4922
ag2
((lp4923
(lp4924
Vrevid
p4925
aI323714474
aa(lp4926
Vparentid
p4927
aI323713353
aa(lp4928
Vuser
p4929
aVSebwite
p4930
aa(lp4931
Vtimestamp
p4932
ag13
((I2009
I11
I3
I16
I38
I36
I1
I307
I-1
t(dtRp4933
aa(lp4934
Vcomment
p4935
aV/* Diversity of sources */ mention [[WP:GNG]], [[WP:BOMBARD]]
p4936
aatRp4937
ag2
((lp4938
(lp4939
Vrevid
p4940
aI323713353
aa(lp4941
Vparentid
p4942
aI323712261
aa(lp4943
Vminor
p4944
aV
aa(lp4945
Vuser
p4946
aVSebwite
p4947
aa(lp4948
Vtimestamp
p4949
ag13
((I2009
I11
I3
I16
I32
I59
I1
I307
I-1
t(dtRp4950
aa(lp4951
Vcomment
p4952
aV/* Depth of coverage */ general guideline
p4953
aatRp4954
ag2
((lp4955
(lp4956
Vrevid
p4957
aI323712261
aa(lp4958
Vparentid
p4959
aI323711980
aa(lp4960
Vminor
p4961
aV
aa(lp4962
Vuser
p4963
aVSebwite
p4964
aa(lp4965
Vtimestamp
p4966
ag13
((I2009
I11
I3
I16
I26
I58
I1
I307
I-1
t(dtRp4967
aa(lp4968
Vcomment
p4969
aV/* Diversity of sources */ sc
p4970
aatRp4971
ag2
((lp4972
(lp4973
Vrevid
p4974
aI323711980
aa(lp4975
Vparentid
p4976
aI323711629
aa(lp4977
Vuser
p4978
aVSebwite
p4979
aa(lp4980
Vtimestamp
p4981
ag13
((I2009
I11
I3
I16
I25
I21
I1
I307
I-1
t(dtRp4982
aa(lp4983
Vcomment
p4984
aV/* Geographical scope */ sc
p4985
aatRp4986
ag2
((lp4987
(lp4988
Vrevid
p4989
aI323711629
aa(lp4990
Vparentid
p4991
aI323711420
aa(lp4992
Vminor
p4993
aV
aa(lp4994
Vuser
p4995
aVSebwite
p4996
aa(lp4997
Vtimestamp
p4998
ag13
((I2009
I11
I3
I16
I23
I27
I1
I307
I-1
t(dtRp4999
aa(lp5000
Vcomment
p5001
aV/* Breaking news */ sc
p5002
aatRp5003
ag2
((lp5004
(lp5005
Vrevid
p5006
aI323711420
aa(lp5007
Vparentid
p5008
aI323711189
aa(lp5009
Vuser
p5010
aVSebwite
p5011
aa(lp5012
Vtimestamp
p5013
ag13
((I2009
I11
I3
I16
I22
I14
I1
I307
I-1
t(dtRp5014
aa(lp5015
Vcomment
p5016
aV/* Routine coverage */ sc
p5017
aatRp5018
ag2
((lp5019
(lp5020
Vrevid
p5021
aI323711189
aa(lp5022
Vparentid
p5023
aI323706045
aa(lp5024
Vuser
p5025
aVSebwite
p5026
aa(lp5027
Vtimestamp
p5028
ag13
((I2009
I11
I3
I16
I20
I52
I1
I307
I-1
t(dtRp5029
aa(lp5030
Vcomment
p5031
aV/* Reliability and bias */ sc
p5032
aatRp5033
ag2
((lp5034
(lp5035
Vrevid
p5036
aI323706045
aa(lp5037
Vparentid
p5038
aI323588994
aa(lp5039
Vuser
p5040
aVSebwite
p5041
aa(lp5042
Vtimestamp
p5043
ag13
((I2009
I11
I3
I15
I51
I31
I1
I307
I-1
t(dtRp5044
aa(lp5045
Vcomment
p5046
aV/* Cause and effect */ anticipation
p5047
aatRp5048
ag2
((lp5049
(lp5050
Vrevid
p5051
aI323588994
aa(lp5052
Vparentid
p5053
aI323588768
aa(lp5054
Vminor
p5055
aV
aa(lp5056
Vuser
p5057
aVSebwite
p5058
aa(lp5059
Vtimestamp
p5060
ag13
((I2009
I11
I3
I0
I48
I49
I1
I307
I-1
t(dtRp5061
aa(lp5062
Vcomment
p5063
aV/* Anticipation */
p5064
aatRp5065
ag2
((lp5066
(lp5067
Vrevid
p5068
aI323588768
aa(lp5069
Vparentid
p5070
aI323588562
aa(lp5071
Vminor
p5072
aV
aa(lp5073
Vuser
p5074
aVSebwite
p5075
aa(lp5076
Vtimestamp
p5077
ag13
((I2009
I11
I3
I0
I47
I27
I1
I307
I-1
t(dtRp5078
aa(lp5079
Vcomment
p5080
aV/* Cause and effect */
p5081
aatRp5082
ag2
((lp5083
(lp5084
Vrevid
p5085
aI323588562
aa(lp5086
Vparentid
p5087
aI323586887
aa(lp5088
Vuser
p5089
aVSebwite
p5090
aa(lp5091
Vtimestamp
p5092
ag13
((I2009
I11
I3
I0
I46
I16
I1
I307
I-1
t(dtRp5093
aa(lp5094
Vcomment
p5095
aV/* Impact */ rename to cause and effect (so people understand meaning), provide more info
p5096
aatRp5097
ag2
((lp5098
(lp5099
Vrevid
p5100
aI323586887
aa(lp5101
Vparentid
p5102
aI323584341
aa(lp5103
Vuser
p5104
aVSebwite
p5105
aa(lp5106
Vtimestamp
p5107
ag13
((I2009
I11
I3
I0
I37
I38
I1
I307
I-1
t(dtRp5108
aa(lp5109
Vcomment
p5110
aV/* Criteria */ add info to geography
p5111
aatRp5112
ag2
((lp5113
(lp5114
Vrevid
p5115
aI323584341
aa(lp5116
Vparentid
p5117
aI323544444
aa(lp5118
Vuser
p5119
aVSebwite
p5120
aa(lp5121
Vtimestamp
p5122
ag13
((I2009
I11
I3
I0
I24
I33
I1
I307
I-1
t(dtRp5123
aa(lp5124
Vcomment
p5125
aV/* Breaking news */ re-add; was removed the other day; please discuss before removing
p5126
aatRp5127
ag2
((lp5128
(lp5129
Vrevid
p5130
aI323544444
aa(lp5131
Vparentid
p5132
aI323391467
aa(lp5133
Vuser
p5134
aVFences and windows
p5135
aa(lp5136
Vtimestamp
p5137
ag13
((I2009
I11
I2
I21
I13
I21
I0
I306
I-1
t(dtRp5138
aa(lp5139
Vcomment
p5140
aV/* Breaking news */
p5141
aatRp5142
ag2
((lp5143
(lp5144
Vrevid
p5145
aI323391467
aa(lp5146
Vparentid
p5147
aI323390215
aa(lp5148
Vuser
p5149
aVFences and windows
p5150
aa(lp5151
Vtimestamp
p5152
ag13
((I2009
I11
I2
I1
I42
I40
I0
I306
I-1
t(dtRp5153
aa(lp5154
Vcomment
p5155
aV/* Criteria */  More refining of criteria
p5156
aatRp5157
ag2
((lp5158
(lp5159
Vrevid
p5160
aI323390215
aa(lp5161
Vparentid
p5162
aI323390071
aa(lp5163
Vuser
p5164
aVFences and windows
p5165
aa(lp5166
Vtimestamp
p5167
ag13
((I2009
I11
I2
I1
I34
I25
I0
I306
I-1
t(dtRp5168
aa(lp5169
Vcomment
p5170
aV/* Depth */ Moved wording to better section
p5171
aatRp5172
ag2
((lp5173
(lp5174
Vrevid
p5175
aI323390071
aa(lp5176
Vparentid
p5177
aI323389538
aa(lp5178
Vuser
p5179
aVFences and windows
p5180
aa(lp5181
Vtimestamp
p5182
ag13
((I2009
I11
I2
I1
I33
I23
I0
I306
I-1
t(dtRp5183
aa(lp5184
Vcomment
p5185
aV/* Breadth and scope */  Split scope and breadth
p5186
aatRp5187
ag2
((lp5188
(lp5189
Vrevid
p5190
aI323389538
aa(lp5191
Vparentid
p5192
aI323214689
aa(lp5193
Vuser
p5194
aVFences and windows
p5195
aa(lp5196
Vtimestamp
p5197
ag13
((I2009
I11
I2
I1
I30
I7
I0
I306
I-1
t(dtRp5198
aa(lp5199
Vcomment
p5200
aV/* Persistence */  Split out 'impact' to a new subsection
p5201
aatRp5202
ag2
((lp5203
(lp5204
Vrevid
p5205
aI323214689
aa(lp5206
Vparentid
p5207
aI323207234
aa(lp5208
Vuser
p5209
aVFences and windows
p5210
aa(lp5211
Vtimestamp
p5212
ag13
((I2009
I11
I1
I3
I0
I44
I6
I305
I-1
t(dtRp5213
aa(lp5214
Vcomment
p5215
aVReverted to revision 322998675 by [[Special:Contributions/Fences and windows|Fences and windows]]; I'm sorry Sebwite, but these edits don't match the tone, mischaracterise WP:ONEEVENT and are to some extent redundant to existing content. ([[WP:TW|TW]
p5216
aatRp5217
ag2
((lp5218
(lp5219
Vrevid
p5220
aI323207234
aa(lp5221
Vparentid
p5222
aI323205230
aa(lp5223
Vuser
p5224
aVSebwite
p5225
aa(lp5226
Vtimestamp
p5227
ag13
((I2009
I11
I1
I1
I57
I41
I6
I305
I-1
t(dtRp5228
aa(lp5229
Vcomment
p5230
aV/* Breaking news */ anticipation
p5231
aatRp5232
ag2
((lp5233
(lp5234
Vrevid
p5235
aI323205230
aa(lp5236
Vparentid
p5237
aI322998675
aa(lp5238
Vuser
p5239
aVSebwite
p5240
aa(lp5241
Vtimestamp
p5242
ag13
((I2009
I11
I1
I1
I42
I32
I6
I305
I-1
t(dtRp5243
aa(lp5244
Vcomment
p5245
aVadd some
p5246
aatRp5247
ag2
((lp5248
(lp5249
Vrevid
p5250
aI322998675
aa(lp5251
Vparentid
p5252
aI322998341
aa(lp5253
Vminor
p5254
aV
aa(lp5255
Vuser
p5256
aVFences and windows
p5257
aa(lp5258
Vtimestamp
p5259
ag13
((I2009
I10
I30
I22
I6
I47
I4
I303
I-1
t(dtRp5260
aa(lp5261
Vcomment
p5262
aV/* Alternatives to deletion */  Main link
p5263
aatRp5264
ag2
((lp5265
(lp5266
Vrevid
p5267
aI322998341
aa(lp5268
Vparentid
p5269
aI322998311
aa(lp5270
Vminor
p5271
aV
aa(lp5272
Vuser
p5273
aVFences and windows
p5274
aa(lp5275
Vtimestamp
p5276
ag13
((I2009
I10
I30
I22
I4
I7
I4
I303
I-1
t(dtRp5277
aa(lp5278
Vcomment
p5279
aV/* Participants */
p5280
aatRp5281
ag2
((lp5282
(lp5283
Vrevid
p5284
aI322998311
aa(lp5285
Vparentid
p5286
aI322998234
aa(lp5287
Vminor
p5288
aV
aa(lp5289
Vuser
p5290
aVFences and windows
p5291
aa(lp5292
Vtimestamp
p5293
ag13
((I2009
I10
I30
I22
I3
I50
I4
I303
I-1
t(dtRp5294
aa(lp5295
Vcomment
p5296
aV/* Participants */
p5297
aatRp5298
ag2
((lp5299
(lp5300
Vrevid
p5301
aI322998234
aa(lp5302
Vparentid
p5303
aI322997116
aa(lp5304
Vuser
p5305
aVFences and windows
p5306
aa(lp5307
Vtimestamp
p5308
ag13
((I2009
I10
I30
I22
I3
I24
I4
I303
I-1
t(dtRp5309
aa(lp5310
Vcomment
p5311
aV/* Breaking news */  See also links
p5312
aatRp5313
ag2
((lp5314
(lp5315
Vrevid
p5316
aI322997116
aa(lp5317
Vparentid
p5318
aI322995507
aa(lp5319
Vuser
p5320
aVFences and windows
p5321
aa(lp5322
Vtimestamp
p5323
ag13
((I2009
I10
I30
I21
I56
I12
I4
I303
I-1
t(dtRp5324
aa(lp5325
Vcomment
p5326
aV/* See also */  Added [[WP:WIDESPREAD]] to See also
p5327
aatRp5328
ag2
((lp5329
(lp5330
Vrevid
p5331
aI322995507
aa(lp5332
Vparentid
p5333
aI322994865
aa(lp5334
Vuser
p5335
aVFences and windows
p5336
aa(lp5337
Vtimestamp
p5338
ag13
((I2009
I10
I30
I21
I45
I39
I4
I303
I-1
t(dtRp5339
aa(lp5340
Vcomment
p5341
aV/* Breadth and scope */  Re to local interests notability proposal
p5342
aatRp5343
ag2
((lp5344
(lp5345
Vrevid
p5346
aI322994865
aa(lp5347
Vparentid
p5348
aI322666609
aa(lp5349
Vuser
p5350
aVFences and windows
p5351
aa(lp5352
Vtimestamp
p5353
ag13
((I2009
I10
I30
I21
I41
I17
I4
I303
I-1
t(dtRp5354
aa(lp5355
Vcomment
p5356
aV/* Routine coverage */  Added 'run-of-the-mill'
p5357
aatRp5358
ag2
((lp5359
(lp5360
Vrevid
p5361
aI322666609
aa(lp5362
Vparentid
p5363
aI322657834
aa(lp5364
Vuser
p5365
aVRusty Cashman
p5366
aa(lp5367
Vtimestamp
p5368
ag13
((I2009
I10
I29
I2
I56
I5
I3
I302
I-1
t(dtRp5369
aa(lp5370
Vcomment
p5371
aV/* Depth */  many is better than most here - Some newspaper articles and editorials can be in depth
p5372
aatRp5373
ag2
((lp5374
(lp5375
Vrevid
p5376
aI322657834
aa(lp5377
Vparentid
p5378
aI322657562
aa(lp5379
Vuser
p5380
aVFences and windows
p5381
aa(lp5382
Vtimestamp
p5383
ag13
((I2009
I10
I29
I1
I50
I41
I3
I302
I-1
t(dtRp5384
aa(lp5385
Vcomment
p5386
aV/* Breadth and scope */  Minor rewording
p5387
aatRp5388
ag2
((lp5389
(lp5390
Vrevid
p5391
aI322657562
aa(lp5392
Vparentid
p5393
aI322642915
aa(lp5394
Vminor
p5395
aV
aa(lp5396
Vuser
p5397
aVFences and windows
p5398
aa(lp5399
Vtimestamp
p5400
ag13
((I2009
I10
I29
I1
I48
I40
I3
I302
I-1
t(dtRp5401
aa(lp5402
Vcomment
p5403
aV/* Persistence */  Reordered wording
p5404
aatRp5405
ag2
((lp5406
(lp5407
Vrevid
p5408
aI322642915
aa(lp5409
Vparentid
p5410
aI322642368
aa(lp5411
Vminor
p5412
aV
aa(lp5413
Vuser
p5414
aVFences and windows
p5415
aa(lp5416
Vtimestamp
p5417
ag13
((I2009
I10
I29
I0
I21
I56
I3
I302
I-1
t(dtRp5418
aa(lp5419
Vcomment
p5420
aV/* Content */  types -> kind
p5421
aatRp5422
ag2
((lp5423
(lp5424
Vrevid
p5425
aI322642368
aa(lp5426
Vparentid
p5427
aI322640947
aa(lp5428
Vuser
p5429
aVFences and windows
p5430
aa(lp5431
Vtimestamp
p5432
ag13
((I2009
I10
I29
I0
I18
I49
I3
I302
I-1
t(dtRp5433
aa(lp5434
Vcomment
p5435
aV/* See also */  Added In the news box
p5436
aatRp5437
ag2
((lp5438
(lp5439
Vrevid
p5440
aI322640947
aa(lp5441
Vparentid
p5442
aI322640107
aa(lp5443
Vuser
p5444
aVFences and windows
p5445
aa(lp5446
Vtimestamp
p5447
ag13
((I2009
I10
I29
I0
I10
I31
I3
I302
I-1
t(dtRp5448
aa(lp5449
Vcomment
p5450
aV/* See also */  Added several links
p5451
aatRp5452
ag2
((lp5453
(lp5454
Vrevid
p5455
aI322640107
aa(lp5456
Vparentid
p5457
aI322452865
aa(lp5458
Vuser
p5459
aVFences and windows
p5460
aa(lp5461
Vtimestamp
p5462
ag13
((I2009
I10
I29
I0
I5
I7
I3
I302
I-1
t(dtRp5463
aa(lp5464
Vcomment
p5465
aV/* Criteria */  Added bit about current use of guidelines
p5466
aatRp5467
ag2
((lp5468
(lp5469
Vrevid
p5470
aI322452865
aa(lp5471
Vparentid
p5472
aI322446610
aa(lp5473
Vuser
p5474
aVMickMacNee
p5475
aa(lp5476
Vtimestamp
p5477
ag13
((I2009
I10
I28
I1
I15
I43
I2
I301
I-1
t(dtRp5478
aa(lp5479
Vcomment
p5480
aV/* See also */  + *[[Wikipedia:Arguments to avoid in deletion discussions#It's in the news]]
p5481
aatRp5482
ag2
((lp5483
(lp5484
Vrevid
p5485
aI322446610
aa(lp5486
Vparentid
p5487
aI321844396
aa(lp5488
Vuser
p5489
aVFences and windows
p5490
aa(lp5491
Vtimestamp
p5492
ag13
((I2009
I10
I28
I0
I36
I50
I2
I301
I-1
t(dtRp5493
aa(lp5494
Vcomment
p5495
aV/* Routine coverage */  "Planned coverage" added
p5496
aatRp5497
ag2
((lp5498
(lp5499
Vrevid
p5500
aI321844396
aa(lp5501
Vparentid
p5502
aI321843886
aa(lp5503
Vuser
p5504
aVFences and windows
p5505
aa(lp5506
Vtimestamp
p5507
ag13
((I2009
I10
I24
I23
I25
I11
I5
I297
I-1
t(dtRp5508
aa(lp5509
Vcomment
p5510
aVChanged the nutshell
p5511
aatRp5512
ag2
((lp5513
(lp5514
Vrevid
p5515
aI321843886
aa(lp5516
Vparentid
p5517
aI321842828
aa(lp5518
Vuser
p5519
aVFences and windows
p5520
aa(lp5521
Vtimestamp
p5522
ag13
((I2009
I10
I24
I23
I21
I13
I5
I297
I-1
t(dtRp5523
aa(lp5524
Vcomment
p5525
aV/* Criteria */
p5526
aatRp5527
ag2
((lp5528
(lp5529
Vrevid
p5530
aI321842828
aa(lp5531
Vparentid
p5532
aI321842597
aa(lp5533
Vuser
p5534
aVFences and windows
p5535
aa(lp5536
Vtimestamp
p5537
ag13
((I2009
I10
I24
I23
I14
I6
I5
I297
I-1
t(dtRp5538
aa(lp5539
Vcomment
p5540
aV/* Criminal acts */
p5541
aatRp5542
ag2
((lp5543
(lp5544
Vrevid
p5545
aI321842597
aa(lp5546
Vparentid
p5547
aI321842526
aa(lp5548
Vuser
p5549
aVFences and windows
p5550
aa(lp5551
Vtimestamp
p5552
ag13
((I2009
I10
I24
I23
I12
I45
I5
I297
I-1
t(dtRp5553
aa(lp5554
Vcomment
p5555
aV/* People involved in events */
p5556
aatRp5557
ag2
((lp5558
(lp5559
Vrevid
p5560
aI321842526
aa(lp5561
Vparentid
p5562
aI321841747
aa(lp5563
Vuser
p5564
aVFences and windows
p5565
aa(lp5566
Vtimestamp
p5567
ag13
((I2009
I10
I24
I23
I12
I17
I5
I297
I-1
t(dtRp5568
aa(lp5569
Vcomment
p5570
aV/* Alternatives to deletion */  Wording from [[Wikipedia:Notability_(criminal_acts)#Inclusion_of_biographical_information]]
p5571
aatRp5572
ag2
((lp5573
(lp5574
Vrevid
p5575
aI321841747
aa(lp5576
Vparentid
p5577
aI321841673
aa(lp5578
Vminor
p5579
aV
aa(lp5580
Vuser
p5581
aVFences and windows
p5582
aa(lp5583
Vtimestamp
p5584
ag13
((I2009
I10
I24
I23
I7
I30
I5
I297
I-1
t(dtRp5585
aa(lp5586
Vcomment
p5587
aV/* Breaking news */
p5588
aatRp5589
ag2
((lp5590
(lp5591
Vrevid
p5592
aI321841673
aa(lp5593
Vparentid
p5594
aI321841118
aa(lp5595
Vuser
p5596
aVFences and windows
p5597
aa(lp5598
Vtimestamp
p5599
ag13
((I2009
I10
I24
I23
I7
I4
I5
I297
I-1
t(dtRp5600
aa(lp5601
Vcomment
p5602
aV/* Breaking news */  Wording from [[Wikipedia:Notability_(criminal_acts)#Templates]]
p5603
aatRp5604
ag2
((lp5605
(lp5606
Vrevid
p5607
aI321841118
aa(lp5608
Vparentid
p5609
aI321840132
aa(lp5610
Vuser
p5611
aVFences and windows
p5612
aa(lp5613
Vtimestamp
p5614
ag13
((I2009
I10
I24
I23
I3
I35
I5
I297
I-1
t(dtRp5615
aa(lp5616
Vcomment
p5617
aV/* Criteria */
p5618
aatRp5619
ag2
((lp5620
(lp5621
Vrevid
p5622
aI321840132
aa(lp5623
Vparentid
p5624
aI321837784
aa(lp5625
Vuser
p5626
aVFences and windows
p5627
aa(lp5628
Vtimestamp
p5629
ag13
((I2009
I10
I24
I22
I56
I49
I5
I297
I-1
t(dtRp5630
aa(lp5631
Vcomment
p5632
aV/* Scope */  Borrowing wording from [[Wikipedia:Notability_(criminal_acts)#Multiple.2C_independent_sources]]
p5633
aatRp5634
ag2
((lp5635
(lp5636
Vrevid
p5637
aI321837784
aa(lp5638
Vparentid
p5639
aI321675427
aa(lp5640
Vuser
p5641
aVFences and windows
p5642
aa(lp5643
Vtimestamp
p5644
ag13
((I2009
I10
I24
I22
I40
I57
I5
I297
I-1
t(dtRp5645
aa(lp5646
Vcomment
p5647
aVAdding some draft ideas on "routine coverage"
p5648
aatRp5649
ag2
((lp5650
(lp5651
Vrevid
p5652
aI321675427
aa(lp5653
Vparentid
p5654
aI321673126
aa(lp5655
Vuser
p5656
aVFences and windows
p5657
aa(lp5658
Vtimestamp
p5659
ag13
((I2009
I10
I24
I0
I50
I21
I5
I297
I-1
t(dtRp5660
aa(lp5661
Vcomment
p5662
aV/* Content */
p5663
aatRp5664
ag2
((lp5665
(lp5666
Vrevid
p5667
aI321673126
aa(lp5668
Vparentid
p5669
aI321670854
aa(lp5670
Vuser
p5671
aVFences and windows
p5672
aa(lp5673
Vtimestamp
p5674
ag13
((I2009
I10
I24
I0
I30
I52
I5
I297
I-1
t(dtRp5675
aa(lp5676
Vcomment
p5677
aV
aatRp5678
ag2
((lp5679
(lp5680
Vrevid
p5681
aI321670854
aa(lp5682
Vparentid
p5683
aI321670343
aa(lp5684
Vuser
p5685
aVFences and windows
p5686
aa(lp5687
Vtimestamp
p5688
ag13
((I2009
I10
I24
I0
I13
I9
I5
I297
I-1
t(dtRp5689
aa(lp5690
Vcomment
p5691
aV/* Breaking news */
p5692
aatRp5693
ag2
((lp5694
(lp5695
Vrevid
p5696
aI321670343
aa(lp5697
Vparentid
p5698
aI321670074
aa(lp5699
Vuser
p5700
aVFences and windows
p5701
aa(lp5702
Vtimestamp
p5703
ag13
((I2009
I10
I24
I0
I9
I7
I5
I297
I-1
t(dtRp5704
aa(lp5705
Vcomment
p5706
aV
aatRp5707
ag2
((lp5708
(lp5709
Vrevid
p5710
aI321670074
aa(lp5711
Vparentid
p5712
aI321669860
aa(lp5713
Vuser
p5714
aVFences and windows
p5715
aa(lp5716
Vtimestamp
p5717
ag13
((I2009
I10
I24
I0
I7
I0
I5
I297
I-1
t(dtRp5718
aa(lp5719
Vcomment
p5720
aV/* Criteria */
p5721
aatRp5722
ag2
((lp5723
(lp5724
Vrevid
p5725
aI321669860
aa(lp5726
Vparentid
p5727
aI321668647
aa(lp5728
Vuser
p5729
aVFences and windows
p5730
aa(lp5731
Vtimestamp
p5732
ag13
((I2009
I10
I24
I0
I5
I38
I5
I297
I-1
t(dtRp5733
aa(lp5734
Vcomment
p5735
aV/* Sensationalism */
p5736
aatRp5737
ag2
((lp5738
(lp5739
Vrevid
p5740
aI321668647
aa(lp5741
Vparentid
p5742
aI321668202
aa(lp5743
Vuser
p5744
aVFences and windows
p5745
aa(lp5746
Vtimestamp
p5747
ag13
((I2009
I10
I23
I23
I56
I9
I4
I296
I-1
t(dtRp5748
aa(lp5749
Vcomment
p5750
aV/* Criteria */
p5751
aatRp5752
ag2
((lp5753
(lp5754
Vrevid
p5755
aI321668202
aa(lp5756
Vparentid
p5757
aI321668106
aa(lp5758
Vuser
p5759
aVFences and windows
p5760
aa(lp5761
Vtimestamp
p5762
ag13
((I2009
I10
I23
I23
I52
I29
I4
I296
I-1
t(dtRp5763
aa(lp5764
Vcomment
p5765
aV/* Criteria */
p5766
aatRp5767
ag2
((lp5768
(lp5769
Vrevid
p5770
aI321668106
aa(lp5771
Vparentid
p5772
aI321629162
aa(lp5773
Vuser
p5774
aVFences and windows
p5775
aa(lp5776
Vtimestamp
p5777
ag13
((I2009
I10
I23
I23
I51
I36
I4
I296
I-1
t(dtRp5778
aa(lp5779
Vcomment
p5780
aV/* Persistence */
p5781
aatRp5782
ag2
((lp5783
(lp5784
Vrevid
p5785
aI321629162
aa(lp5786
Vparentid
p5787
aI321480567
aa(lp5788
Vuser
p5789
aVLocation
p5790
aa(lp5791
Vtimestamp
p5792
ag13
((I2009
I10
I23
I19
I48
I34
I4
I296
I-1
t(dtRp5793
aa(lp5794
Vcomment
p5795
aV/* Criteria */  trying to place these in a hierarchy roughly suggested on the talk page
p5796
aatRp5797
ag2
((lp5798
(lp5799
Vrevid
p5800
aI321480567
aa(lp5801
Vparentid
p5802
aI321476378
aa(lp5803
Vuser
p5804
aVFences and windows
p5805
aa(lp5806
Vtimestamp
p5807
ag13
((I2009
I10
I22
I23
I41
I54
I3
I295
I-1
t(dtRp5808
aa(lp5809
Vcomment
p5810
aV/* Depth */
p5811
aatRp5812
ag2
((lp5813
(lp5814
Vrevid
p5815
aI321476378
aa(lp5816
Vparentid
p5817
aI321475852
aa(lp5818
Vuser
p5819
aVRusty Cashman
p5820
aa(lp5821
Vtimestamp
p5822
ag13
((I2009
I10
I22
I23
I13
I1
I3
I295
I-1
t(dtRp5823
aa(lp5824
Vcomment
p5825
aV/* Persistence */  get rid of confusing red link
p5826
aatRp5827
ag2
((lp5828
(lp5829
Vrevid
p5830
aI321475852
aa(lp5831
Vparentid
p5832
aI321475613
aa(lp5833
Vuser
p5834
aVRusty Cashman
p5835
aa(lp5836
Vtimestamp
p5837
ag13
((I2009
I10
I22
I23
I9
I45
I3
I295
I-1
t(dtRp5838
aa(lp5839
Vcomment
p5840
aV/* Depth */  Delete guidance text
p5841
aatRp5842
ag2
((lp5843
(lp5844
Vrevid
p5845
aI321475613
aa(lp5846
Vparentid
p5847
aI321475478
aa(lp5848
Vminor
p5849
aV
aa(lp5850
Vuser
p5851
aVRusty Cashman
p5852
aa(lp5853
Vtimestamp
p5854
ag13
((I2009
I10
I22
I23
I8
I25
I3
I295
I-1
t(dtRp5855
aa(lp5856
Vcomment
p5857
aV/* Depth */  fix red link
p5858
aatRp5859
ag2
((lp5860
(lp5861
Vrevid
p5862
aI321475478
aa(lp5863
Vparentid
p5864
aI321472930
aa(lp5865
Vuser
p5866
aVRusty Cashman
p5867
aa(lp5868
Vtimestamp
p5869
ag13
((I2009
I10
I22
I23
I7
I42
I3
I295
I-1
t(dtRp5870
aa(lp5871
Vcomment
p5872
aV/* Depth */ Delete  guidance text and provide examples of major news magazines
p5873
aatRp5874
ag2
((lp5875
(lp5876
Vrevid
p5877
aI321472930
aa(lp5878
Vparentid
p5879
aI321472503
aa(lp5880
Vminor
p5881
aV
aa(lp5882
Vuser
p5883
aVRusty Cashman
p5884
aa(lp5885
Vtimestamp
p5886
ag13
((I2009
I10
I22
I22
I51
I19
I3
I295
I-1
t(dtRp5887
aa(lp5888
Vcomment
p5889
aV/* Depth */  wording
p5890
aatRp5891
ag2
((lp5892
(lp5893
Vrevid
p5894
aI321472503
aa(lp5895
Vparentid
p5896
aI321472064
aa(lp5897
Vuser
p5898
aVRusty Cashman
p5899
aa(lp5900
Vtimestamp
p5901
ag13
((I2009
I10
I22
I22
I48
I20
I3
I295
I-1
t(dtRp5902
aa(lp5903
Vcomment
p5904
aV/* Depth */  Improve wording
p5905
aatRp5906
ag2
((lp5907
(lp5908
Vrevid
p5909
aI321472064
aa(lp5910
Vparentid
p5911
aI321471494
aa(lp5912
Vuser
p5913
aVRusty Cashman
p5914
aa(lp5915
Vtimestamp
p5916
ag13
((I2009
I10
I22
I22
I45
I30
I3
I295
I-1
t(dtRp5917
aa(lp5918
Vcomment
p5919
aV/* Persistence */  strengthen wording
p5920
aatRp5921
ag2
((lp5922
(lp5923
Vrevid
p5924
aI321471494
aa(lp5925
Vparentid
p5926
aI321448637
aa(lp5927
Vuser
p5928
aVRusty Cashman
p5929
aa(lp5930
Vtimestamp
p5931
ag13
((I2009
I10
I22
I22
I41
I45
I3
I295
I-1
t(dtRp5932
aa(lp5933
Vcomment
p5934
aV/* Depth */ quantity is not really the issue; quality and amount of analysis/context arre
p5935
aatRp5936
ag2
((lp5937
(lp5938
Vrevid
p5939
aI321448637
aa(lp5940
Vparentid
p5941
aI321447880
aa(lp5942
Vuser
p5943
aVLocation
p5944
aa(lp5945
Vtimestamp
p5946
ag13
((I2009
I10
I22
I20
I35
I53
I3
I295
I-1
t(dtRp5947
aa(lp5948
Vcomment
p5949
aVhope this isn't too bold
p5950
aatRp5951
ag2
((lp5952
(lp5953
Vrevid
p5954
aI321447880
aa(lp5955
Vparentid
p5956
aI321445199
aa(lp5957
Vuser
p5958
aVLocation
p5959
aa(lp5960
Vtimestamp
p5961
ag13
((I2009
I10
I22
I20
I32
I9
I3
I295
I-1
t(dtRp5962
aa(lp5963
Vcomment
p5964
aV
aatRp5965
ag2
((lp5966
(lp5967
Vrevid
p5968
aI321445199
aa(lp5969
Vparentid
p5970
aI321443303
aa(lp5971
Vuser
p5972
aVLocation
p5973
aa(lp5974
Vtimestamp
p5975
ag13
((I2009
I10
I22
I20
I18
I35
I3
I295
I-1
t(dtRp5976
aa(lp5977
Vcomment
p5978
aV/* Routine news coverage */  just a start
p5979
aatRp5980
ag2
((lp5981
(lp5982
Vrevid
p5983
aI321443303
aa(lp5984
Vparentid
p5985
aI321403098
aa(lp5986
Vuser
p5987
aVLocation
p5988
aa(lp5989
Vtimestamp
p5990
ag13
((I2009
I10
I22
I20
I8
I56
I3
I295
I-1
t(dtRp5991
aa(lp5992
Vcomment
p5993
aV/* Scope of coverage */  in progress
p5994
aatRp5995
ag2
((lp5996
(lp5997
Vrevid
p5998
aI321403098
aa(lp5999
Vparentid
p6000
aI321323504
aa(lp6001
Vuser
p6002
aVLocation
p6003
aa(lp6004
Vtimestamp
p6005
ag13
((I2009
I10
I22
I16
I18
I43
I3
I295
I-1
t(dtRp6006
aa(lp6007
Vcomment
p6008
aVrestored merge header per talk page
p6009
aatRp6010
ag2
((lp6011
(lp6012
Vrevid
p6013
aI321323504
aa(lp6014
Vparentid
p6015
aI321323131
aa(lp6016
Vuser
p6017
aVLocation
p6018
aa(lp6019
Vtimestamp
p6020
ag13
((I2009
I10
I22
I4
I0
I59
I3
I295
I-1
t(dtRp6021
aa(lp6022
Vcomment
p6023
aV/* Scope of coverage */
p6024
aatRp6025
ag2
((lp6026
(lp6027
Vrevid
p6028
aI321323131
aa(lp6029
Vparentid
p6030
aI321320901
aa(lp6031
Vuser
p6032
aVLocation
p6033
aa(lp6034
Vtimestamp
p6035
ag13
((I2009
I10
I22
I3
I57
I21
I3
I295
I-1
t(dtRp6036
aa(lp6037
Vcomment
p6038
aVis this ok?
p6039
aatRp6040
ag2
((lp6041
(lp6042
Vrevid
p6043
aI321320901
aa(lp6044
Vparentid
p6045
aI321314485
aa(lp6046
Vuser
p6047
aVFences and windows
p6048
aa(lp6049
Vtimestamp
p6050
ag13
((I2009
I10
I22
I3
I36
I53
I3
I295
I-1
t(dtRp6051
aa(lp6052
Vcomment
p6053
aV/* Criminal acts */ Removed merge tag
p6054
aatRp6055
ag2
((lp6056
(lp6057
Vrevid
p6058
aI321314485
aa(lp6059
Vparentid
p6060
aI321311880
aa(lp6061
Vuser
p6062
aVLocation
p6063
aa(lp6064
Vtimestamp
p6065
ag13
((I2009
I10
I22
I2
I41
I44
I3
I295
I-1
t(dtRp6066
aa(lp6067
Vcomment
p6068
aVpointing merge tag to discussion
p6069
aatRp6070
ag2
((lp6071
(lp6072
Vrevid
p6073
aI321311880
aa(lp6074
Vparentid
p6075
aI321311515
aa(lp6076
Vminor
p6077
aV
aa(lp6078
Vuser
p6079
aVLocation
p6080
aa(lp6081
Vtimestamp
p6082
ag13
((I2009
I10
I22
I2
I18
I47
I3
I295
I-1
t(dtRp6083
aa(lp6084
Vcomment
p6085
aV/* Criminal acts */
p6086
aatRp6087
ag2
((lp6088
(lp6089
Vrevid
p6090
aI321311515
aa(lp6091
Vparentid
p6092
aI321309779
aa(lp6093
Vminor
p6094
aV
aa(lp6095
Vuser
p6096
aVFences and windows
p6097
aa(lp6098
Vtimestamp
p6099
ag13
((I2009
I10
I22
I2
I15
I43
I3
I295
I-1
t(dtRp6100
aa(lp6101
Vcomment
p6102
aV
aatRp6103
ag2
((lp6104
(lp6105
Vrevid
p6106
aI321309779
aa(lp6107
Vparentid
p6108
aI321307978
aa(lp6109
Vuser
p6110
aVLocation
p6111
aa(lp6112
Vtimestamp
p6113
ag13
((I2009
I10
I22
I2
I1
I42
I3
I295
I-1
t(dtRp6114
aa(lp6115
Vcomment
p6116
aVrmvd merge tag
p6117
aatRp6118
ag2
((lp6119
(lp6120
Vrevid
p6121
aI321307978
aa(lp6122
Vparentid
p6123
aI321307713
aa(lp6124
Vuser
p6125
aVFences and windows
p6126
aa(lp6127
Vtimestamp
p6128
ag13
((I2009
I10
I22
I1
I47
I0
I3
I295
I-1
t(dtRp6129
aa(lp6130
Vcomment
p6131
aV/* Breaking news */
p6132
aatRp6133
ag2
((lp6134
(lp6135
Vrevid
p6136
aI321307713
aa(lp6137
Vparentid
p6138
aI321305273
aa(lp6139
Vuser
p6140
aVFences and windows
p6141
aa(lp6142
Vtimestamp
p6143
ag13
((I2009
I10
I22
I1
I44
I44
I3
I295
I-1
t(dtRp6144
aa(lp6145
Vcomment
p6146
aV/* Breaking news */
p6147
aatRp6148
ag2
((lp6149
(lp6150
Vrevid
p6151
aI321305273
aa(lp6152
Vparentid
p6153
aI321305155
aa(lp6154
Vuser
p6155
aVThe Wordsmith
p6156
aa(lp6157
Vtimestamp
p6158
ag13
((I2009
I10
I22
I1
I26
I32
I3
I295
I-1
t(dtRp6159
aa(lp6160
Vcomment
p6161
aV/* See also */ rm link that was redirected
p6162
aatRp6163
ag2
((lp6164
(lp6165
Vrevid
p6166
aI321305155
aa(lp6167
Vparentid
p6168
aI321304365
aa(lp6169
Vuser
p6170
aVFences and windows
p6171
aa(lp6172
Vtimestamp
p6173
ag13
((I2009
I10
I22
I1
I25
I46
I3
I295
I-1
t(dtRp6174
aa(lp6175
Vcomment
p6176
aV/* Breaking news */
p6177
aatRp6178
ag2
((lp6179
(lp6180
Vrevid
p6181
aI321304365
aa(lp6182
Vparentid
p6183
aI321302389
aa(lp6184
Vuser
p6185
aVFences and windows
p6186
aa(lp6187
Vtimestamp
p6188
ag13
((I2009
I10
I22
I1
I20
I0
I3
I295
I-1
t(dtRp6189
aa(lp6190
Vcomment
p6191
aV/* Sensationalism */
p6192
aatRp6193
ag2
((lp6194
(lp6195
Vrevid
p6196
aI321302389
aa(lp6197
Vparentid
p6198
aI321301845
aa(lp6199
Vuser
p6200
aVThe Wordsmith
p6201
aa(lp6202
Vtimestamp
p6203
ag13
((I2009
I10
I22
I1
I5
I22
I3
I295
I-1
t(dtRp6204
aa(lp6205
Vcomment
p6206
aVmerging content
p6207
aatRp6208
ag2
((lp6209
(lp6210
Vrevid
p6211
aI321301845
aa(lp6212
Vparentid
p6213
aI321301305
aa(lp6214
Vuser
p6215
aVFences and windows
p6216
aa(lp6217
Vtimestamp
p6218
ag13
((I2009
I10
I22
I1
I1
I5
I3
I295
I-1
t(dtRp6219
aa(lp6220
Vcomment
p6221
aV/* Systemic bias */
p6222
aatRp6223
ag2
((lp6224
(lp6225
Vrevid
p6226
aI321301305
aa(lp6227
Vparentid
p6228
aI321298516
aa(lp6229
Vuser
p6230
aVFences and windows
p6231
aa(lp6232
Vtimestamp
p6233
ag13
((I2009
I10
I22
I0
I57
I22
I3
I295
I-1
t(dtRp6234
aa(lp6235
Vcomment
p6236
aV/* Passing vs. lasting significance */
p6237
aatRp6238
ag2
((lp6239
(lp6240
Vrevid
p6241
aI321298516
aa(lp6242
Vparentid
p6243
aI321298260
aa(lp6244
Vuser
p6245
aVThe Wordsmith
p6246
aa(lp6247
Vtimestamp
p6248
ag13
((I2009
I10
I22
I0
I35
I23
I3
I295
I-1
t(dtRp6249
aa(lp6250
Vcomment
p6251
aV/* Sensationalism */ small changes
p6252
aatRp6253
ag2
((lp6254
(lp6255
Vrevid
p6256
aI321298260
aa(lp6257
Vparentid
p6258
aI321298162
aa(lp6259
Vminor
p6260
aV
aa(lp6261
Vuser
p6262
aVThe Wordsmith
p6263
aa(lp6264
Vtimestamp
p6265
ag13
((I2009
I10
I22
I0
I33
I0
I3
I295
I-1
t(dtRp6266
aa(lp6267
Vcomment
p6268
aV/* Passing vs. lasting significance */ oops, got the link wrong
p6269
aatRp6270
ag2
((lp6271
(lp6272
Vrevid
p6273
aI321298162
aa(lp6274
Vparentid
p6275
aI321298081
aa(lp6276
Vuser
p6277
aVFences and windows
p6278
aa(lp6279
Vtimestamp
p6280
ag13
((I2009
I10
I22
I0
I32
I16
I3
I295
I-1
t(dtRp6281
aa(lp6282
Vcomment
p6283
aV/* Passing vs. lasting significance */
p6284
aatRp6285
ag2
((lp6286
(lp6287
Vrevid
p6288
aI321298081
aa(lp6289
Vparentid
p6290
aI321298076
aa(lp6291
Vminor
p6292
aV
aa(lp6293
Vuser
p6294
aVThe Wordsmith
p6295
aa(lp6296
Vtimestamp
p6297
ag13
((I2009
I10
I22
I0
I31
I40
I3
I295
I-1
t(dtRp6298
aa(lp6299
Vcomment
p6300
aV/* Passing vs. lasting significance */ fixed wikilinks
p6301
aatRp6302
ag2
((lp6303
(lp6304
Vrevid
p6305
aI321298076
aa(lp6306
Vparentid
p6307
aI321297257
aa(lp6308
Vuser
p6309
aVLocation
p6310
aa(lp6311
Vtimestamp
p6312
ag13
((I2009
I10
I22
I0
I31
I36
I3
I295
I-1
t(dtRp6313
aa(lp6314
Vcomment
p6315
aV{{mergeto}}
p6316
aatRp6317
ag2
((lp6318
(lp6319
Vrevid
p6320
aI321297257
aa(lp6321
Vparentid
p6322
aI321296304
aa(lp6323
Vuser
p6324
aVFences and windows
p6325
aa(lp6326
Vtimestamp
p6327
ag13
((I2009
I10
I22
I0
I25
I20
I3
I295
I-1
t(dtRp6328
aa(lp6329
Vcomment
p6330
aV/* Merging */
p6331
aatRp6332
ag2
((lp6333
(lp6334
Vrevid
p6335
aI321296304
aa(lp6336
Vparentid
p6337
aI321294911
aa(lp6338
Vuser
p6339
aVFences and windows
p6340
aa(lp6341
Vtimestamp
p6342
ag13
((I2009
I10
I22
I0
I18
I26
I3
I295
I-1
t(dtRp6343
aa(lp6344
Vcomment
p6345
aV/* Passing vs. lasting significance */
p6346
aatRp6347
ag2
((lp6348
(lp6349
Vrevid
p6350
aI321294911
aa(lp6351
Vparentid
p6352
aI321294785
aa(lp6353
Vminor
p6354
aV
aa(lp6355
Vuser
p6356
aVFences and windows
p6357
aa(lp6358
Vtimestamp
p6359
ag13
((I2009
I10
I22
I0
I9
I19
I3
I295
I-1
t(dtRp6360
aa(lp6361
Vcomment
p6362
aV/* Passing vs. lasting events */
p6363
aatRp6364
ag2
((lp6365
(lp6366
Vrevid
p6367
aI321294785
aa(lp6368
Vparentid
p6369
aI321293911
aa(lp6370
Vuser
p6371
aVFences and windows
p6372
aa(lp6373
Vtimestamp
p6374
ag13
((I2009
I10
I22
I0
I8
I16
I3
I295
I-1
t(dtRp6375
aa(lp6376
Vcomment
p6377
aV
aatRp6378
ag2
((lp6379
(lp6380
Vrevid
p6381
aI321293911
aa(lp6382
Vparentid
p6383
aI321293713
aa(lp6384
Vuser
p6385
aVFences and windows
p6386
aa(lp6387
Vtimestamp
p6388
ag13
((I2009
I10
I22
I0
I2
I3
I3
I295
I-1
t(dtRp6389
aa(lp6390
Vcomment
p6391
aV/* Sensational events */
p6392
aatRp6393
ag2
((lp6394
(lp6395
Vrevid
p6396
aI321293713
aa(lp6397
Vparentid
p6398
aI321293520
aa(lp6399
Vuser
p6400
aVFences and windows
p6401
aa(lp6402
Vtimestamp
p6403
ag13
((I2009
I10
I22
I0
I0
I36
I3
I295
I-1
t(dtRp6404
aa(lp6405
Vcomment
p6406
aV/* Local events */
p6407
aatRp6408
ag2
((lp6409
(lp6410
Vrevid
p6411
aI321293520
aa(lp6412
Vparentid
p6413
aI321292976
aa(lp6414
Vminor
p6415
aV
aa(lp6416
Vuser
p6417
aVFences and windows
p6418
aa(lp6419
Vtimestamp
p6420
ag13
((I2009
I10
I21
I23
I59
I14
I2
I294
I-1
t(dtRp6421
aa(lp6422
Vcomment
p6423
aV/* Events of lasting significance */
p6424
aatRp6425
ag2
((lp6426
(lp6427
Vrevid
p6428
aI321292976
aa(lp6429
Vparentid
p6430
aI321292290
aa(lp6431
Vuser
p6432
aVFences and windows
p6433
aa(lp6434
Vtimestamp
p6435
ag13
((I2009
I10
I21
I23
I55
I40
I2
I294
I-1
t(dtRp6436
aa(lp6437
Vcomment
p6438
aV/* Events of lasting significance */
p6439
aatRp6440
ag2
((lp6441
(lp6442
Vrevid
p6443
aI321292290
aa(lp6444
Vparentid
p6445
aI321291711
aa(lp6446
Vuser
p6447
aVFences and windows
p6448
aa(lp6449
Vtimestamp
p6450
ag13
((I2009
I10
I21
I23
I50
I57
I2
I294
I-1
t(dtRp6451
aa(lp6452
Vcomment
p6453
aV/* Sensational events */
p6454
aatRp6455
ag2
((lp6456
(lp6457
Vrevid
p6458
aI321291711
aa(lp6459
Vparentid
p6460
aI321291426
aa(lp6461
Vuser
p6462
aVFences and windows
p6463
aa(lp6464
Vtimestamp
p6465
ag13
((I2009
I10
I21
I23
I46
I55
I2
I294
I-1
t(dtRp6466
aa(lp6467
Vcomment
p6468
aV
aatRp6469
ag2
((lp6470
(lp6471
Vrevid
p6472
aI321291426
aa(lp6473
Vparentid
p6474
aI320442724
aa(lp6475
Vuser
p6476
aVFences and windows
p6477
aa(lp6478
Vtimestamp
p6479
ag13
((I2009
I10
I21
I23
I44
I57
I2
I294
I-1
t(dtRp6480
aa(lp6481
Vcomment
p6482
aV
aatRp6483
ag2
((lp6484
(lp6485
Vrevid
p6486
aI320442724
aa(lp6487
Vparentid
p6488
aI320364321
aa(lp6489
Vuser
p6490
aVThe Wordsmith
p6491
aa(lp6492
Vtimestamp
p6493
ag13
((I2009
I10
I17
I18
I28
I29
I5
I290
I-1
t(dtRp6494
aa(lp6495
Vcomment
p6496
aVunder construction and reproposed
p6497
aatRp6498
ag2
((lp6499
(lp6500
Vrevid
p6501
aI320364321
aa(lp6502
Vparentid
p6503
aI320361790
aa(lp6504
Vuser
p6505
aVThe Wordsmith
p6506
aa(lp6507
Vtimestamp
p6508
ag13
((I2009
I10
I17
I7
I26
I8
I5
I290
I-1
t(dtRp6509
aa(lp6510
Vcomment
p6511
aV/* Individual stories */ rewrite section and remove amusement stories as too vague
p6512
aatRp6513
ag2
((lp6514
(lp6515
Vrevid
p6516
aI320361790
aa(lp6517
Vparentid
p6518
aI320360984
aa(lp6519
Vuser
p6520
aVThe Wordsmith
p6521
aa(lp6522
Vtimestamp
p6523
ag13
((I2009
I10
I17
I7
I1
I56
I5
I290
I-1
t(dtRp6524
aa(lp6525
Vcomment
p6526
aV/* Local events */ clarify
p6527
aatRp6528
ag2
((lp6529
(lp6530
Vrevid
p6531
aI320360984
aa(lp6532
Vparentid
p6533
aI320359106
aa(lp6534
Vuser
p6535
aVThe Wordsmith
p6536
aa(lp6537
Vtimestamp
p6538
ag13
((I2009
I10
I17
I6
I53
I47
I5
I290
I-1
t(dtRp6539
aa(lp6540
Vcomment
p6541
aV/* National/International events */ copyedit, rm section on market volatility as too vague, added section on deaths
p6542
aatRp6543
ag2
((lp6544
(lp6545
Vrevid
p6546
aI320359106
aa(lp6547
Vparentid
p6548
aI320355957
aa(lp6549
Vminor
p6550
aV
aa(lp6551
Vuser
p6552
aVThe Wordsmith
p6553
aa(lp6554
Vtimestamp
p6555
ag13
((I2009
I10
I17
I6
I36
I4
I5
I290
I-1
t(dtRp6556
aa(lp6557
Vcomment
p6558
aV/* Breakthroughs */ ce
p6559
aatRp6560
ag2
((lp6561
(lp6562
Vrevid
p6563
aI320355957
aa(lp6564
Vparentid
p6565
aI320354477
aa(lp6566
Vuser
p6567
aVThe Wordsmith
p6568
aa(lp6569
Vtimestamp
p6570
ag13
((I2009
I10
I17
I6
I3
I3
I5
I290
I-1
t(dtRp6571
aa(lp6572
Vcomment
p6573
aV/* National/International events */ copyedits and clarification
p6574
aatRp6575
ag2
((lp6576
(lp6577
Vrevid
p6578
aI320354477
aa(lp6579
Vparentid
p6580
aI255651753
aa(lp6581
Vminor
p6582
aV
aa(lp6583
Vuser
p6584
aVThe Wordsmith
p6585
aa(lp6586
Vtimestamp
p6587
ag13
((I2009
I10
I17
I5
I48
I24
I5
I290
I-1
t(dtRp6588
aa(lp6589
Vcomment
p6590
aV/* Breakthroughs */ copyedit
p6591
aatRp6592
ag2
((lp6593
(lp6594
Vrevid
p6595
aI255651753
aa(lp6596
Vparentid
p6597
aI242292863
aa(lp6598
Vuser
p6599
aVRenamedUser jaskldjslak903
p6600
aa(lp6601
Vtimestamp
p6602
ag13
((I2008
I12
I3
I16
I19
I36
I2
I338
I-1
t(dtRp6603
aa(lp6604
Vcomment
p6605
aVfailed, discussion died in talk,  poor idea anyways, agree with the local event though, but that could be covered elsewhere
p6606
aatRp6607
ag2
((lp6608
(lp6609
Vrevid
p6610
aI242292863
aa(lp6611
Vparentid
p6612
aI237954153
aa(lp6613
Vuser
p6614
aVRonnotel
p6615
aa(lp6616
Vtimestamp
p6617
ag13
((I2008
I10
I1
I17
I43
I52
I2
I275
I-1
t(dtRp6618
aa(lp6619
Vcomment
p6620
aV/* National/International events */ propose notability standards for market volatility
p6621
aatRp6622
ag2
((lp6623
(lp6624
Vrevid
p6625
aI237954153
aa(lp6626
Vparentid
p6627
aI237952623
aa(lp6628
Vminor
p6629
aV
aa(lp6630
Vuser
p6631
aVBlack Falcon
p6632
aa(lp6633
Vtimestamp
p6634
ag13
((I2008
I9
I12
I15
I54
I43
I4
I256
I-1
t(dtRp6635
aa(lp6636
Vcomment
p6637
aVreverting test
p6638
aatRp6639
ag2
((lp6640
(lp6641
Vrevid
p6642
aI237952623
aa(lp6643
Vparentid
p6644
aI237952275
aa(lp6645
Vuser
p6646
aV78.149.136.182
p6647
aa(lp6648
Vanon
p6649
aV
aa(lp6650
Vtimestamp
p6651
ag13
((I2008
I9
I12
I15
I46
I13
I4
I256
I-1
t(dtRp6652
aa(lp6653
Vcomment
p6654
aV
aatRp6655
ag2
((lp6656
(lp6657
Vrevid
p6658
aI237952275
aa(lp6659
Vparentid
p6660
aI237951987
aa(lp6661
Vuser
p6662
aV78.149.136.182
p6663
aa(lp6664
Vanon
p6665
aV
aa(lp6666
Vtimestamp
p6667
ag13
((I2008
I9
I12
I15
I44
I29
I4
I256
I-1
t(dtRp6668
aa(lp6669
Vcomment
p6670
aV
aatRp6671
ag2
((lp6672
(lp6673
Vrevid
p6674
aI237951987
aa(lp6675
Vparentid
p6676
aI234137610
aa(lp6677
Vuser
p6678
aV78.149.136.182
p6679
aa(lp6680
Vanon
p6681
aV
aa(lp6682
Vtimestamp
p6683
ag13
((I2008
I9
I12
I15
I43
I9
I4
I256
I-1
t(dtRp6684
aa(lp6685
Vcomment
p6686
aV
aatRp6687
ag2
((lp6688
(lp6689
Vrevid
p6690
aI234137610
aa(lp6691
Vparentid
p6692
aI234137534
aa(lp6693
Vminor
p6694
aV
aa(lp6695
Vuser
p6696
aVBlack Falcon
p6697
aa(lp6698
Vtimestamp
p6699
ag13
((I2008
I8
I25
I14
I9
I16
I0
I238
I-1
t(dtRp6700
aa(lp6701
Vcomment
p6702
aV/* Crime */ tweak
p6703
aatRp6704
ag2
((lp6705
(lp6706
Vrevid
p6707
aI234137534
aa(lp6708
Vparentid
p6709
aI232519406
aa(lp6710
Vminor
p6711
aV
aa(lp6712
Vuser
p6713
aVBlack Falcon
p6714
aa(lp6715
Vtimestamp
p6716
ag13
((I2008
I8
I25
I14
I8
I55
I0
I238
I-1
t(dtRp6717
aa(lp6718
Vcomment
p6719
aV/* Crime */ fix link
p6720
aatRp6721
ag2
((lp6722
(lp6723
Vrevid
p6724
aI232519406
aa(lp6725
Vparentid
p6726
aI232504521
aa(lp6727
Vuser
p6728
aVUnitedStatesian
p6729
aa(lp6730
Vtimestamp
p6731
ag13
((I2008
I8
I17
I17
I16
I1
I6
I230
I-1
t(dtRp6732
aa(lp6733
Vcomment
p6734
aV/* Crime */ fix link
p6735
aatRp6736
ag2
((lp6737
(lp6738
Vrevid
p6739
aI232504521
aa(lp6740
Vparentid
p6741
aI232503356
aa(lp6742
Vuser
p6743
aVSebwite
p6744
aa(lp6745
Vtimestamp
p6746
ag13
((I2008
I8
I17
I15
I26
I51
I6
I230
I-1
t(dtRp6747
aa(lp6748
Vcomment
p6749
aVdisasters
p6750
aatRp6751
ag2
((lp6752
(lp6753
Vrevid
p6754
aI232503356
aa(lp6755
Vparentid
p6756
aI231507947
aa(lp6757
Vuser
p6758
aVSebwite
p6759
aa(lp6760
Vtimestamp
p6761
ag13
((I2008
I8
I17
I15
I16
I34
I6
I230
I-1
t(dtRp6762
aa(lp6763
Vcomment
p6764
aV/* National/International events */ breakthroughs, recalls
p6765
aatRp6766
ag2
((lp6767
(lp6768
Vrevid
p6769
aI231507947
aa(lp6770
Vparentid
p6771
aI231320719
aa(lp6772
Vuser
p6773
aVSebwite
p6774
aa(lp6775
Vtimestamp
p6776
ag13
((I2008
I8
I12
I19
I3
I34
I1
I225
I-1
t(dtRp6777
aa(lp6778
Vcomment
p6779
aVamusement stories
p6780
aatRp6781
ag2
((lp6782
(lp6783
Vrevid
p6784
aI231320719
aa(lp6785
Vparentid
p6786
aI231320505
aa(lp6787
Vminor
p6788
aV
aa(lp6789
Vuser
p6790
aVSebwite
p6791
aa(lp6792
Vtimestamp
p6793
ag13
((I2008
I8
I11
I22
I10
I17
I0
I224
I-1
t(dtRp6794
aa(lp6795
Vcomment
p6796
aV
aatRp6797
ag2
((lp6798
(lp6799
Vrevid
p6800
aI231320505
aa(lp6801
Vparentid
p6802
aI231318951
aa(lp6803
Vuser
p6804
aVSebwite
p6805
aa(lp6806
Vtimestamp
p6807
ag13
((I2008
I8
I11
I22
I9
I23
I0
I224
I-1
t(dtRp6808
aa(lp6809
Vcomment
p6810
aVns
p6811
aatRp6812
ag2
((lp6813
(lp6814
Vrevid
p6815
aI231318951
aa(lp6816
Vparentid
p6817
aI231191364
aa(lp6818
Vuser
p6819
aVSebwite
p6820
aa(lp6821
Vtimestamp
p6822
ag13
((I2008
I8
I11
I22
I1
I26
I0
I224
I-1
t(dtRp6823
aa(lp6824
Vcomment
p6825
aVlead paragraph
p6826
aatRp6827
ag2
((lp6828
(lp6829
Vrevid
p6830
aI231191364
aa(lp6831
Vparentid
p6832
aI0
aa(lp6833
Vuser
p6834
aVSebwite
p6835
aa(lp6836
Vtimestamp
p6837
ag13
((I2008
I8
I11
I8
I47
I34
I0
I224
I-1
t(dtRp6838
aa(lp6839
Vcomment
p6840
aV[[WP:AES|\u2190]] Created page with '{{construction}} {{proposed|WP:EVENT}}  ==Local events== A news event reported by the media only within the immediate region is generally not notable, and does not...'
p6841
aatRp6842
a.